;--------------------------------------------------------
; File Created by SDCC : free open source ANSI-C Compiler
; Version 4.1.6 #12539 (MINGW32)
;--------------------------------------------------------
	.module home_defender
	.optsdcc -mgbz80
	
;--------------------------------------------------------
; Public variables in this module
;--------------------------------------------------------
	.globl _main
	.globl _menuSelection
	.globl _displayStats
	.globl _playGame
	.globl _startScreen
	.globl _playSounds
	.globl _fadeTransition
	.globl _fadeIn
	.globl _fadeOut
	.globl _performanceDelay
	.globl _moveSprites
	.globl _setUpSprites
	.globl _initarand
	.globl _set_sprite_data
	.globl _set_win_tiles
	.globl _set_win_data
	.globl _set_bkg_tiles
	.globl _set_bkg_data
	.globl _wait_vbl_done
	.globl _waitpad
	.globl _joypad
	.globl _asteroid2
	.globl _asteroid1
	.globl _missile
	.globl _bolt2
	.globl _bolt1
	.globl _maverick
	.globl _currScore
	.globl _hiScore
	.globl _numplays
	.globl _hud
	.globl _game_screen
	.globl _stats_screen
	.globl _menu_screen
	.globl _bkg
	.globl _sprites
	.globl _start_map
	.globl _start_data
;--------------------------------------------------------
; special function registers
;--------------------------------------------------------
;--------------------------------------------------------
; ram data
;--------------------------------------------------------
	.area _DATA
_numplays::
	.ds 1
_hiScore::
	.ds 1
_currScore::
	.ds 1
_maverick::
	.ds 10
_bolt1::
	.ds 10
_bolt2::
	.ds 10
_missile::
	.ds 10
_asteroid1::
	.ds 10
_asteroid2::
	.ds 10
;--------------------------------------------------------
; ram data
;--------------------------------------------------------
	.area _INITIALIZED
;--------------------------------------------------------
; absolute external ram data
;--------------------------------------------------------
	.area _DABS (ABS)
;--------------------------------------------------------
; global & static initialisations
;--------------------------------------------------------
	.area _HOME
	.area _GSINIT
	.area _GSFINAL
	.area _GSINIT
;--------------------------------------------------------
; Home
;--------------------------------------------------------
	.area _HOME
	.area _HOME
;--------------------------------------------------------
; code
;--------------------------------------------------------
	.area _CODE
;home_defender.c:47: void setUpSprites(){
;	---------------------------------
; Function setUpSprites
; ---------------------------------
_setUpSprites::
;c:/gbdk/include/gb/gb.h:1447: shadow_OAM[nb].tile=tile;
	ld	hl, #(_shadow_OAM + 2)
	ld	(hl), #0x02
;home_defender.c:51: maverick.spriteIDs[0] = 0;
	ld	hl, #_maverick
	ld	(hl), #0x00
;c:/gbdk/include/gb/gb.h:1447: shadow_OAM[nb].tile=tile;
	ld	hl, #(_shadow_OAM + 6)
	ld	(hl), #0x03
;home_defender.c:53: maverick.spriteIDs[1] = 1;
	ld	hl, #(_maverick + 1)
	ld	(hl), #0x01
;c:/gbdk/include/gb/gb.h:1447: shadow_OAM[nb].tile=tile;
	ld	hl, #(_shadow_OAM + 10)
	ld	(hl), #0x04
;home_defender.c:55: maverick.spriteIDs[2] = 2;
	ld	hl, #(_maverick + 2)
	ld	(hl), #0x02
;c:/gbdk/include/gb/gb.h:1447: shadow_OAM[nb].tile=tile;
	ld	hl, #(_shadow_OAM + 14)
	ld	(hl), #0x05
;home_defender.c:57: maverick.spriteIDs[3] = 3;
	ld	hl, #(_maverick + 3)
	ld	(hl), #0x03
;home_defender.c:58: maverick.x = 0;
	ld	hl, #(_maverick + 4)
	ld	(hl), #0x00
;home_defender.c:59: maverick.y = 0;
	ld	hl, #(_maverick + 5)
	ld	(hl), #0x00
;home_defender.c:60: maverick.width = 16;
	ld	hl, #(_maverick + 6)
	ld	(hl), #0x10
;home_defender.c:61: maverick.height = 16;
	ld	hl, #(_maverick + 7)
	ld	(hl), #0x10
;home_defender.c:62: maverick.hp = 3;
	ld	hl, #(_maverick + 8)
	ld	(hl), #0x03
;home_defender.c:63: maverick.speed = 4;
	ld	hl, #(_maverick + 9)
	ld	(hl), #0x04
;home_defender.c:64: }
	ret
_start_data:
	.db #0x00	; 0
	.db #0x00	; 0
	.db #0x00	; 0
	.db #0x00	; 0
	.db #0x00	; 0
	.db #0x00	; 0
	.db #0x00	; 0
	.db #0x00	; 0
	.db #0x00	; 0
	.db #0x00	; 0
	.db #0x00	; 0
	.db #0x00	; 0
	.db #0x00	; 0
	.db #0x00	; 0
	.db #0x00	; 0
	.db #0x00	; 0
	.db #0x0f	; 15
	.db #0x00	; 0
	.db #0x0f	; 15
	.db #0x00	; 0
	.db #0x0f	; 15
	.db #0x00	; 0
	.db #0x1f	; 31
	.db #0x00	; 0
	.db #0x1f	; 31
	.db #0x00	; 0
	.db #0x1e	; 30
	.db #0x01	; 1
	.db #0x3f	; 63
	.db #0x00	; 0
	.db #0x3f	; 63
	.db #0x00	; 0
	.db #0x80	; 128
	.db #0x00	; 0
	.db #0x81	; 129
	.db #0x00	; 0
	.db #0xf1	; 241
	.db #0x00	; 0
	.db #0x01	; 1
	.db #0xf0	; 240
	.db #0x13	; 19
	.db #0xe0	; 224
	.db #0x13	; 19
	.db #0xe0	; 224
	.db #0xe7	; 231
	.db #0x00	; 0
	.db #0xff	; 255
	.db #0x00	; 0
	.db #0xf0	; 240
	.db #0x00	; 0
	.db #0xf0	; 240
	.db #0x00	; 0
	.db #0xff	; 255
	.db #0x00	; 0
	.db #0xf3	; 243
	.db #0x0c	; 12
	.db #0xe3	; 227
	.db #0x1c	; 28
	.db #0xe7	; 231
	.db #0x18	; 24
	.db #0xc7	; 199
	.db #0x38	; 56	'8'
	.db #0xcf	; 207
	.db #0x30	; 48	'0'
	.db #0x7f	; 127
	.db #0x00	; 0
	.db #0xff	; 255
	.db #0x00	; 0
	.db #0xff	; 255
	.db #0x00	; 0
	.db #0xf0	; 240
	.db #0x0f	; 15
	.db #0xe0	; 224
	.db #0x1f	; 31
	.db #0xc1	; 193
	.db #0x3e	; 62
	.db #0xc0	; 192
	.db #0x3c	; 60
	.db #0x84	; 132
	.db #0x78	; 120	'x'
	.db #0xfc	; 252
	.db #0x00	; 0
	.db #0xfe	; 254
	.db #0x00	; 0
	.db #0xff	; 255
	.db #0x00	; 0
	.db #0x3e	; 62
	.db #0xc1	; 193
	.db #0x3e	; 62
	.db #0xc1	; 193
	.db #0xfe	; 254
	.db #0x01	; 1
	.db #0x7c	; 124
	.db #0x03	; 3
	.db #0x7c	; 124
	.db #0x03	; 3
	.db #0x1f	; 31
	.db #0x00	; 0
	.db #0x1f	; 31
	.db #0x00	; 0
	.db #0xbf	; 191
	.db #0x00	; 0
	.db #0x3f	; 63
	.db #0xc0	; 192
	.db #0x7f	; 127
	.db #0x80	; 128
	.db #0x7f	; 127
	.db #0x80	; 128
	.db #0x7f	; 127
	.db #0x80	; 128
	.db #0xff	; 255
	.db #0x00	; 0
	.db #0x00	; 0
	.db #0x00	; 0
	.db #0x00	; 0
	.db #0x00	; 0
	.db #0xe0	; 224
	.db #0x00	; 0
	.db #0x91	; 145
	.db #0x60	; 96
	.db #0x93	; 147
	.db #0x60	; 96
	.db #0xc7	; 199
	.db #0x30	; 48	'0'
	.db #0xcf	; 207
	.db #0x30	; 48	'0'
	.db #0xdf	; 223
	.db #0x20	; 32
	.db #0x3f	; 63
	.db #0x00	; 0
	.db #0x7e	; 126
	.db #0x00	; 0
	.db #0xff	; 255
	.db #0x00	; 0
	.db #0xfe	; 254
	.db #0x01	; 1
	.db #0xfc	; 252
	.db #0x03	; 3
	.db #0xfc	; 252
	.db #0x03	; 3
	.db #0xf8	; 248
	.db #0x07	; 7
	.db #0xf8	; 248
	.db #0x07	; 7
	.db #0x1f	; 31
	.db #0x00	; 0
	.db #0x3f	; 63
	.db #0x00	; 0
	.db #0xff	; 255
	.db #0x00	; 0
	.db #0x3e	; 62
	.db #0xc1	; 193
	.db #0x7c	; 124
	.db #0x83	; 131
	.db #0x7c	; 124
	.db #0x83	; 131
	.db #0xff	; 255
	.db #0x00	; 0
	.db #0xff	; 255
	.db #0x00	; 0
	.db #0xff	; 255
	.db #0x00	; 0
	.db #0xff	; 255
	.db #0x00	; 0
	.db #0xff	; 255
	.db #0x00	; 0
	.db #0x00	; 0
	.db #0xff	; 255
	.db #0x00	; 0
	.db #0xff	; 255
	.db #0x00	; 0
	.db #0xff	; 255
	.db #0xc0	; 192
	.db #0x00	; 0
	.db #0xf8	; 248
	.db #0x00	; 0
	.db #0x80	; 128
	.db #0x00	; 0
	.db #0x80	; 128
	.db #0x00	; 0
	.db #0xf0	; 240
	.db #0x00	; 0
	.db #0x08	; 8
	.db #0xf0	; 240
	.db #0x00	; 0
	.db #0xf0	; 240
	.db #0x10	; 16
	.db #0xe0	; 224
	.db #0x00	; 0
	.db #0x00	; 0
	.db #0x00	; 0
	.db #0x00	; 0
	.db #0x00	; 0
	.db #0x00	; 0
	.db #0x00	; 0
	.db #0x00	; 0
	.db #0x00	; 0
	.db #0x00	; 0
	.db #0x00	; 0
	.db #0x00	; 0
	.db #0x00	; 0
	.db #0x00	; 0
	.db #0x00	; 0
	.db #0x00	; 0
	.db #0x01	; 1
	.db #0x00	; 0
	.db #0x01	; 1
	.db #0x00	; 0
	.db #0x7f	; 127
	.db #0x00	; 0
	.db #0x7f	; 127
	.db #0x00	; 0
	.db #0x7c	; 124
	.db #0x03	; 3
	.db #0xf8	; 248
	.db #0x07	; 7
	.db #0xf8	; 248
	.db #0x07	; 7
	.db #0xf0	; 240
	.db #0x0f	; 15
	.db #0xf0	; 240
	.db #0x0f	; 15
	.db #0xf1	; 241
	.db #0x0e	; 14
	.db #0xff	; 255
	.db #0x00	; 0
	.db #0xff	; 255
	.db #0x00	; 0
	.db #0x0f	; 15
	.db #0xf0	; 240
	.db #0x0f	; 15
	.db #0xf0	; 240
	.db #0xff	; 255
	.db #0x00	; 0
	.db #0x9f	; 159
	.db #0x00	; 0
	.db #0x1e	; 30
	.db #0x01	; 1
	.db #0x3e	; 62
	.db #0x01	; 1
	.db #0xcf	; 207
	.db #0x30	; 48	'0'
	.db #0x8f	; 143
	.db #0x70	; 112	'p'
	.db #0x9f	; 159
	.db #0x60	; 96
	.db #0x9f	; 159
	.db #0x60	; 96
	.db #0x1f	; 31
	.db #0xe0	; 224
	.db #0x3f	; 63
	.db #0xc0	; 192
	.db #0x3f	; 63
	.db #0xc0	; 192
	.db #0x3f	; 63
	.db #0xc0	; 192
	.db #0x80	; 128
	.db #0x78	; 120	'x'
	.db #0x88	; 136
	.db #0x70	; 112	'p'
	.db #0x00	; 0
	.db #0xf0	; 240
	.db #0x00	; 0
	.db #0xf0	; 240
	.db #0x11	; 17
	.db #0xe0	; 224
	.db #0xe3	; 227
	.db #0x00	; 0
	.db #0xff	; 255
	.db #0x00	; 0
	.db #0xff	; 255
	.db #0x00	; 0
	.db #0x78	; 120	'x'
	.db #0x07	; 7
	.db #0xf9	; 249
	.db #0x06	; 6
	.db #0xf9	; 249
	.db #0x06	; 6
	.db #0xf1	; 241
	.db #0x0e	; 14
	.db #0xf3	; 243
	.db #0x0c	; 12
	.db #0xe3	; 227
	.db #0x1c	; 28
	.db #0xe3	; 227
	.db #0x1c	; 28
	.db #0xc7	; 199
	.db #0x38	; 56	'8'
	.db #0xff	; 255
	.db #0x00	; 0
	.db #0xf3	; 243
	.db #0x0c	; 12
	.db #0xf3	; 243
	.db #0x0c	; 12
	.db #0xf3	; 243
	.db #0x0c	; 12
	.db #0xe3	; 227
	.db #0x1c	; 28
	.db #0xe0	; 224
	.db #0x1e	; 30
	.db #0xe2	; 226
	.db #0x1c	; 28
	.db #0xc0	; 192
	.db #0x3c	; 60
	.db #0xfe	; 254
	.db #0x01	; 1
	.db #0xfd	; 253
	.db #0x02	; 2
	.db #0xfb	; 251
	.db #0x04	; 4
	.db #0xf1	; 241
	.db #0x0e	; 14
	.db #0xe3	; 227
	.db #0x1c	; 28
	.db #0x43	; 67	'C'
	.db #0x3c	; 60
	.db #0x47	; 71	'G'
	.db #0x38	; 56	'8'
	.db #0x47	; 71	'G'
	.db #0x38	; 56	'8'
	.db #0xf8	; 248
	.db #0x07	; 7
	.db #0xf1	; 241
	.db #0x0e	; 14
	.db #0xf1	; 241
	.db #0x0e	; 14
	.db #0xf3	; 243
	.db #0x0c	; 12
	.db #0xe3	; 227
	.db #0x1c	; 28
	.db #0xe3	; 227
	.db #0x1c	; 28
	.db #0xc7	; 199
	.db #0x38	; 56	'8'
	.db #0xc7	; 199
	.db #0x38	; 56	'8'
	.db #0xff	; 255
	.db #0x00	; 0
	.db #0xff	; 255
	.db #0x00	; 0
	.db #0xf0	; 240
	.db #0x0f	; 15
	.db #0xf0	; 240
	.db #0x0f	; 15
	.db #0xe1	; 225
	.db #0x1e	; 30
	.db #0xff	; 255
	.db #0x00	; 0
	.db #0xff	; 255
	.db #0x00	; 0
	.db #0xff	; 255
	.db #0x00	; 0
	.db #0xf0	; 240
	.db #0x00	; 0
	.db #0xf9	; 249
	.db #0x06	; 6
	.db #0x01	; 1
	.db #0xfe	; 254
	.db #0x00	; 0
	.db #0xfe	; 254
	.db #0xfe	; 254
	.db #0x00	; 0
	.db #0xf0	; 240
	.db #0x00	; 0
	.db #0xf0	; 240
	.db #0x00	; 0
	.db #0xf0	; 240
	.db #0x00	; 0
	.db #0x01	; 1
	.db #0x00	; 0
	.db #0x00	; 0
	.db #0x00	; 0
	.db #0x00	; 0
	.db #0x00	; 0
	.db #0x00	; 0
	.db #0x00	; 0
	.db #0x00	; 0
	.db #0x00	; 0
	.db #0x00	; 0
	.db #0x00	; 0
	.db #0x00	; 0
	.db #0x00	; 0
	.db #0x00	; 0
	.db #0x00	; 0
	.db #0xe0	; 224
	.db #0x1e	; 30
	.db #0x00	; 0
	.db #0x3e	; 62
	.db #0x02	; 2
	.db #0x3c	; 60
	.db #0x3c	; 60
	.db #0x00	; 0
	.db #0x00	; 0
	.db #0x00	; 0
	.db #0x00	; 0
	.db #0x00	; 0
	.db #0x00	; 0
	.db #0x00	; 0
	.db #0x00	; 0
	.db #0x00	; 0
	.db #0x3e	; 62
	.db #0x01	; 1
	.db #0x04	; 4
	.db #0x03	; 3
	.db #0x00	; 0
	.db #0x07	; 7
	.db #0x07	; 7
	.db #0x00	; 0
	.db #0x00	; 0
	.db #0x00	; 0
	.db #0x00	; 0
	.db #0x00	; 0
	.db #0x00	; 0
	.db #0x00	; 0
	.db #0x00	; 0
	.db #0x00	; 0
	.db #0x2f	; 47
	.db #0xc0	; 192
	.db #0x04	; 4
	.db #0xc3	; 195
	.db #0x00	; 0
	.db #0xc3	; 195
	.db #0x81	; 129
	.db #0x00	; 0
	.db #0x00	; 0
	.db #0x00	; 0
	.db #0x00	; 0
	.db #0x00	; 0
	.db #0x00	; 0
	.db #0x00	; 0
	.db #0x00	; 0
	.db #0x00	; 0
	.db #0xff	; 255
	.db #0x00	; 0
	.db #0x00	; 0
	.db #0xff	; 255
	.db #0x00	; 0
	.db #0xff	; 255
	.db #0xff	; 255
	.db #0x00	; 0
	.db #0x00	; 0
	.db #0x00	; 0
	.db #0x00	; 0
	.db #0x00	; 0
	.db #0x00	; 0
	.db #0x00	; 0
	.db #0x00	; 0
	.db #0x00	; 0
	.db #0x87	; 135
	.db #0x78	; 120	'x'
	.db #0x04	; 4
	.db #0xf8	; 248
	.db #0x18	; 24
	.db #0xe0	; 224
	.db #0xc0	; 192
	.db #0x00	; 0
	.db #0x00	; 0
	.db #0x00	; 0
	.db #0x00	; 0
	.db #0x00	; 0
	.db #0x00	; 0
	.db #0x00	; 0
	.db #0x00	; 0
	.db #0x00	; 0
	.db #0xc4	; 196
	.db #0x38	; 56	'8'
	.db #0x84	; 132
	.db #0x78	; 120	'x'
	.db #0x80	; 128
	.db #0x78	; 120	'x'
	.db #0xf0	; 240
	.db #0x00	; 0
	.db #0x00	; 0
	.db #0x00	; 0
	.db #0x00	; 0
	.db #0x00	; 0
	.db #0x00	; 0
	.db #0x00	; 0
	.db #0x00	; 0
	.db #0x00	; 0
	.db #0x07	; 7
	.db #0x00	; 0
	.db #0x00	; 0
	.db #0x00	; 0
	.db #0x00	; 0
	.db #0x00	; 0
	.db #0x00	; 0
	.db #0x00	; 0
	.db #0x00	; 0
	.db #0x00	; 0
	.db #0x00	; 0
	.db #0x00	; 0
	.db #0x00	; 0
	.db #0x00	; 0
	.db #0x00	; 0
	.db #0x00	; 0
	.db #0xc7	; 199
	.db #0x38	; 56	'8'
	.db #0x80	; 128
	.db #0x78	; 120	'x'
	.db #0x00	; 0
	.db #0xf8	; 248
	.db #0xf0	; 240
	.db #0x00	; 0
	.db #0x00	; 0
	.db #0x00	; 0
	.db #0x00	; 0
	.db #0x00	; 0
	.db #0x00	; 0
	.db #0x00	; 0
	.db #0x00	; 0
	.db #0x00	; 0
	.db #0xff	; 255
	.db #0x00	; 0
	.db #0x80	; 128
	.db #0x7f	; 127
	.db #0x00	; 0
	.db #0xff	; 255
	.db #0xff	; 255
	.db #0x00	; 0
	.db #0x00	; 0
	.db #0x00	; 0
	.db #0x00	; 0
	.db #0x00	; 0
	.db #0x00	; 0
	.db #0x00	; 0
	.db #0x00	; 0
	.db #0x00	; 0
	.db #0xe1	; 225
	.db #0x1e	; 30
	.db #0x00	; 0
	.db #0xfe	; 254
	.db #0x02	; 2
	.db #0xfc	; 252
	.db #0xfc	; 252
	.db #0x00	; 0
	.db #0x00	; 0
	.db #0x00	; 0
	.db #0x00	; 0
	.db #0x00	; 0
	.db #0x00	; 0
	.db #0x00	; 0
	.db #0x00	; 0
	.db #0x00	; 0
	.db #0x00	; 0
	.db #0x00	; 0
	.db #0x00	; 0
	.db #0x00	; 0
	.db #0x00	; 0
	.db #0x00	; 0
	.db #0x00	; 0
	.db #0x00	; 0
	.db #0x00	; 0
	.db #0x00	; 0
	.db #0x07	; 7
	.db #0x00	; 0
	.db #0x0f	; 15
	.db #0x00	; 0
	.db #0x0f	; 15
	.db #0x00	; 0
	.db #0x00	; 0
	.db #0x00	; 0
	.db #0x00	; 0
	.db #0x00	; 0
	.db #0x00	; 0
	.db #0x00	; 0
	.db #0x00	; 0
	.db #0x00	; 0
	.db #0x00	; 0
	.db #0x00	; 0
	.db #0xff	; 255
	.db #0x00	; 0
	.db #0xff	; 255
	.db #0x00	; 0
	.db #0xff	; 255
	.db #0x00	; 0
	.db #0x00	; 0
	.db #0x00	; 0
	.db #0x00	; 0
	.db #0x00	; 0
	.db #0x00	; 0
	.db #0x00	; 0
	.db #0x00	; 0
	.db #0x00	; 0
	.db #0x00	; 0
	.db #0x00	; 0
	.db #0x00	; 0
	.db #0x00	; 0
	.db #0xe1	; 225
	.db #0x00	; 0
	.db #0xe1	; 225
	.db #0x00	; 0
	.db #0x00	; 0
	.db #0x00	; 0
	.db #0x00	; 0
	.db #0x00	; 0
	.db #0x00	; 0
	.db #0x00	; 0
	.db #0x00	; 0
	.db #0x00	; 0
	.db #0x00	; 0
	.db #0x00	; 0
	.db #0xfc	; 252
	.db #0x00	; 0
	.db #0xfc	; 252
	.db #0x00	; 0
	.db #0xf8	; 248
	.db #0x00	; 0
	.db #0x00	; 0
	.db #0x00	; 0
	.db #0x00	; 0
	.db #0x00	; 0
	.db #0x00	; 0
	.db #0x00	; 0
	.db #0x00	; 0
	.db #0x00	; 0
	.db #0x00	; 0
	.db #0x00	; 0
	.db #0x7f	; 127
	.db #0x00	; 0
	.db #0xff	; 255
	.db #0x00	; 0
	.db #0xff	; 255
	.db #0x00	; 0
	.db #0x00	; 0
	.db #0x00	; 0
	.db #0x00	; 0
	.db #0x00	; 0
	.db #0x00	; 0
	.db #0x00	; 0
	.db #0x00	; 0
	.db #0x00	; 0
	.db #0x00	; 0
	.db #0x00	; 0
	.db #0xfc	; 252
	.db #0x00	; 0
	.db #0xfe	; 254
	.db #0x00	; 0
	.db #0xfc	; 252
	.db #0x00	; 0
	.db #0x00	; 0
	.db #0x00	; 0
	.db #0x00	; 0
	.db #0x00	; 0
	.db #0x00	; 0
	.db #0x00	; 0
	.db #0x00	; 0
	.db #0x00	; 0
	.db #0x00	; 0
	.db #0x00	; 0
	.db #0x7f	; 127
	.db #0x00	; 0
	.db #0x7f	; 127
	.db #0x00	; 0
	.db #0xff	; 255
	.db #0x00	; 0
	.db #0x00	; 0
	.db #0x00	; 0
	.db #0x00	; 0
	.db #0x00	; 0
	.db #0x00	; 0
	.db #0x00	; 0
	.db #0x00	; 0
	.db #0x00	; 0
	.db #0x00	; 0
	.db #0x00	; 0
	.db #0xfe	; 254
	.db #0x00	; 0
	.db #0xfe	; 254
	.db #0x00	; 0
	.db #0xfe	; 254
	.db #0x00	; 0
	.db #0x00	; 0
	.db #0x00	; 0
	.db #0x00	; 0
	.db #0x00	; 0
	.db #0x00	; 0
	.db #0x00	; 0
	.db #0x00	; 0
	.db #0x00	; 0
	.db #0x00	; 0
	.db #0x00	; 0
	.db #0x3c	; 60
	.db #0x00	; 0
	.db #0x7e	; 126
	.db #0x00	; 0
	.db #0x7e	; 126
	.db #0x00	; 0
	.db #0x00	; 0
	.db #0x00	; 0
	.db #0x00	; 0
	.db #0x00	; 0
	.db #0x00	; 0
	.db #0x00	; 0
	.db #0x00	; 0
	.db #0x00	; 0
	.db #0x00	; 0
	.db #0x00	; 0
	.db #0x07	; 7
	.db #0x00	; 0
	.db #0x07	; 7
	.db #0x00	; 0
	.db #0x0f	; 15
	.db #0x00	; 0
	.db #0x00	; 0
	.db #0x00	; 0
	.db #0x00	; 0
	.db #0x00	; 0
	.db #0x00	; 0
	.db #0x00	; 0
	.db #0x00	; 0
	.db #0x00	; 0
	.db #0x00	; 0
	.db #0x00	; 0
	.db #0x87	; 135
	.db #0x00	; 0
	.db #0x87	; 135
	.db #0x00	; 0
	.db #0x8f	; 143
	.db #0x00	; 0
	.db #0x00	; 0
	.db #0x00	; 0
	.db #0x00	; 0
	.db #0x00	; 0
	.db #0x00	; 0
	.db #0x00	; 0
	.db #0x00	; 0
	.db #0x00	; 0
	.db #0x00	; 0
	.db #0x00	; 0
	.db #0x00	; 0
	.db #0x00	; 0
	.db #0xe0	; 224
	.db #0x00	; 0
	.db #0xf1	; 241
	.db #0x00	; 0
	.db #0x00	; 0
	.db #0x00	; 0
	.db #0x00	; 0
	.db #0x00	; 0
	.db #0x00	; 0
	.db #0x00	; 0
	.db #0x00	; 0
	.db #0x00	; 0
	.db #0x00	; 0
	.db #0x00	; 0
	.db #0xfc	; 252
	.db #0x00	; 0
	.db #0xfc	; 252
	.db #0x00	; 0
	.db #0xfc	; 252
	.db #0x00	; 0
	.db #0x00	; 0
	.db #0x00	; 0
	.db #0x00	; 0
	.db #0x00	; 0
	.db #0x00	; 0
	.db #0x00	; 0
	.db #0x00	; 0
	.db #0x00	; 0
	.db #0x00	; 0
	.db #0x00	; 0
	.db #0xf0	; 240
	.db #0x00	; 0
	.db #0xfe	; 254
	.db #0x00	; 0
	.db #0xff	; 255
	.db #0x00	; 0
	.db #0x1f	; 31
	.db #0x00	; 0
	.db #0x1f	; 31
	.db #0x00	; 0
	.db #0x1f	; 31
	.db #0x00	; 0
	.db #0x3e	; 62
	.db #0x01	; 1
	.db #0x3e	; 62
	.db #0x01	; 1
	.db #0x3c	; 60
	.db #0x03	; 3
	.db #0x7c	; 124
	.db #0x03	; 3
	.db #0x7c	; 124
	.db #0x03	; 3
	.db #0xff	; 255
	.db #0x00	; 0
	.db #0x03	; 3
	.db #0xfc	; 252
	.db #0x03	; 3
	.db #0xfc	; 252
	.db #0x1f	; 31
	.db #0xe0	; 224
	.db #0x23	; 35
	.db #0xc0	; 192
	.db #0x27	; 39
	.db #0xc0	; 192
	.db #0x07	; 7
	.db #0xc0	; 192
	.db #0x4f	; 79	'O'
	.db #0x80	; 128
	.db #0xfb	; 251
	.db #0x00	; 0
	.db #0xe3	; 227
	.db #0x1c	; 28
	.db #0xe3	; 227
	.db #0x1c	; 28
	.db #0xe7	; 231
	.db #0x18	; 24
	.db #0xc7	; 199
	.db #0x38	; 56	'8'
	.db #0xcf	; 207
	.db #0x30	; 48	'0'
	.db #0xcf	; 207
	.db #0x30	; 48	'0'
	.db #0x8f	; 143
	.db #0x70	; 112	'p'
	.db #0xff	; 255
	.db #0x00	; 0
	.db #0xe0	; 224
	.db #0x1f	; 31
	.db #0xe0	; 224
	.db #0x1f	; 31
	.db #0xc3	; 195
	.db #0x3c	; 60
	.db #0xff	; 255
	.db #0x00	; 0
	.db #0xff	; 255
	.db #0x00	; 0
	.db #0xff	; 255
	.db #0x00	; 0
	.db #0x80	; 128
	.db #0x7f	; 127
	.db #0xf9	; 249
	.db #0x06	; 6
	.db #0x01	; 1
	.db #0xfe	; 254
	.db #0x03	; 3
	.db #0xfc	; 252
	.db #0xff	; 255
	.db #0x00	; 0
	.db #0x83	; 131
	.db #0x00	; 0
	.db #0x87	; 135
	.db #0x00	; 0
	.db #0xff	; 255
	.db #0x00	; 0
	.db #0x0f	; 15
	.db #0xf0	; 240
	.db #0xff	; 255
	.db #0x00	; 0
	.db #0xf0	; 240
	.db #0x0f	; 15
	.db #0xe0	; 224
	.db #0x1f	; 31
	.db #0xe1	; 225
	.db #0x1e	; 30
	.db #0xe2	; 226
	.db #0x1c	; 28
	.db #0xff	; 255
	.db #0x00	; 0
	.db #0xff	; 255
	.db #0x00	; 0
	.db #0xff	; 255
	.db #0x00	; 0
	.db #0xfc	; 252
	.db #0x03	; 3
	.db #0x01	; 1
	.db #0xfe	; 254
	.db #0x01	; 1
	.db #0xfe	; 254
	.db #0xff	; 255
	.db #0x00	; 0
	.db #0x03	; 3
	.db #0x00	; 0
	.db #0xc3	; 195
	.db #0x00	; 0
	.db #0x83	; 131
	.db #0x00	; 0
	.db #0xff	; 255
	.db #0x00	; 0
	.db #0xff	; 255
	.db #0x00	; 0
	.db #0xf0	; 240
	.db #0x0f	; 15
	.db #0xf0	; 240
	.db #0x0f	; 15
	.db #0xf1	; 241
	.db #0x0e	; 14
	.db #0xff	; 255
	.db #0x00	; 0
	.db #0xff	; 255
	.db #0x00	; 0
	.db #0xff	; 255
	.db #0x00	; 0
	.db #0xc0	; 192
	.db #0x3f	; 63
	.db #0xfe	; 254
	.db #0x01	; 1
	.db #0x00	; 0
	.db #0xff	; 255
	.db #0x00	; 0
	.db #0xff	; 255
	.db #0xff	; 255
	.db #0x00	; 0
	.db #0xe1	; 225
	.db #0x00	; 0
	.db #0xc1	; 193
	.db #0x00	; 0
	.db #0xff	; 255
	.db #0x00	; 0
	.db #0x07	; 7
	.db #0xf8	; 248
	.db #0xff	; 255
	.db #0x00	; 0
	.db #0xff	; 255
	.db #0x00	; 0
	.db #0xff	; 255
	.db #0x00	; 0
	.db #0xff	; 255
	.db #0x00	; 0
	.db #0xff	; 255
	.db #0x00	; 0
	.db #0xef	; 239
	.db #0x10	; 16
	.db #0xef	; 239
	.db #0x10	; 16
	.db #0xe7	; 231
	.db #0x18	; 24
	.db #0x0f	; 15
	.db #0xc0	; 192
	.db #0x0f	; 15
	.db #0xc0	; 192
	.db #0x3f	; 63
	.db #0xc0	; 192
	.db #0x3f	; 63
	.db #0xc0	; 192
	.db #0xbe	; 190
	.db #0x41	; 65	'A'
	.db #0xbe	; 190
	.db #0x41	; 65	'A'
	.db #0xfc	; 252
	.db #0x03	; 3
	.db #0xfc	; 252
	.db #0x03	; 3
	.db #0x8f	; 143
	.db #0x70	; 112	'p'
	.db #0x1f	; 31
	.db #0xe0	; 224
	.db #0x1f	; 31
	.db #0xe0	; 224
	.db #0x1f	; 31
	.db #0xe0	; 224
	.db #0x3e	; 62
	.db #0xc1	; 193
	.db #0x3e	; 62
	.db #0xc1	; 193
	.db #0x7c	; 124
	.db #0x83	; 131
	.db #0x7c	; 124
	.db #0x83	; 131
	.db #0xff	; 255
	.db #0x00	; 0
	.db #0x03	; 3
	.db #0xfc	; 252
	.db #0x03	; 3
	.db #0xfc	; 252
	.db #0x1f	; 31
	.db #0xe0	; 224
	.db #0x03	; 3
	.db #0xe0	; 224
	.db #0x23	; 35
	.db #0xc0	; 192
	.db #0x27	; 39
	.db #0xc0	; 192
	.db #0x07	; 7
	.db #0xc0	; 192
	.db #0xfd	; 253
	.db #0x00	; 0
	.db #0xf3	; 243
	.db #0x0c	; 12
	.db #0xe3	; 227
	.db #0x1c	; 28
	.db #0xe3	; 227
	.db #0x1c	; 28
	.db #0xe7	; 231
	.db #0x18	; 24
	.db #0xc7	; 199
	.db #0x38	; 56	'8'
	.db #0xcf	; 207
	.db #0x30	; 48	'0'
	.db #0xcf	; 207
	.db #0x30	; 48	'0'
	.db #0xff	; 255
	.db #0x00	; 0
	.db #0xe0	; 224
	.db #0x1f	; 31
	.db #0xe0	; 224
	.db #0x1f	; 31
	.db #0xe3	; 227
	.db #0x1c	; 28
	.db #0xff	; 255
	.db #0x00	; 0
	.db #0xff	; 255
	.db #0x00	; 0
	.db #0xff	; 255
	.db #0x00	; 0
	.db #0x80	; 128
	.db #0x7f	; 127
	.db #0xfd	; 253
	.db #0x02	; 2
	.db #0x01	; 1
	.db #0xfe	; 254
	.db #0x01	; 1
	.db #0xfe	; 254
	.db #0xff	; 255
	.db #0x00	; 0
	.db #0xc3	; 195
	.db #0x00	; 0
	.db #0x83	; 131
	.db #0x00	; 0
	.db #0xff	; 255
	.db #0x00	; 0
	.db #0x0f	; 15
	.db #0xf0	; 240
	.db #0xff	; 255
	.db #0x00	; 0
	.db #0xf0	; 240
	.db #0x0f	; 15
	.db #0xf0	; 240
	.db #0x0f	; 15
	.db #0xe1	; 225
	.db #0x1e	; 30
	.db #0xe0	; 224
	.db #0x1e	; 30
	.db #0xe2	; 226
	.db #0x1c	; 28
	.db #0xff	; 255
	.db #0x00	; 0
	.db #0xff	; 255
	.db #0x00	; 0
	.db #0xff	; 255
	.db #0x00	; 0
	.db #0x1f	; 31
	.db #0xe0	; 224
	.db #0x3e	; 62
	.db #0xc1	; 193
	.db #0xfe	; 254
	.db #0x01	; 1
	.db #0x3e	; 62
	.db #0x01	; 1
	.db #0x7c	; 124
	.db #0x03	; 3
	.db #0xfc	; 252
	.db #0x03	; 3
	.db #0xf8	; 248
	.db #0x07	; 7
	.db #0xc0	; 192
	.db #0x00	; 0
	.db #0x20	; 32
	.db #0xc0	; 192
	.db #0x00	; 0
	.db #0xe0	; 224
	.db #0x20	; 32
	.db #0xc0	; 192
	.db #0x20	; 32
	.db #0xc0	; 192
	.db #0x00	; 0
	.db #0xc0	; 192
	.db #0x40	; 64
	.db #0x80	; 128
	.db #0x40	; 64
	.db #0x80	; 128
	.db #0x00	; 0
	.db #0x00	; 0
	.db #0x00	; 0
	.db #0x00	; 0
	.db #0x00	; 0
	.db #0x00	; 0
	.db #0x01	; 1
	.db #0x00	; 0
	.db #0x01	; 1
	.db #0x00	; 0
	.db #0x01	; 1
	.db #0x00	; 0
	.db #0x00	; 0
	.db #0x00	; 0
	.db #0x00	; 0
	.db #0x00	; 0
	.db #0xf8	; 248
	.db #0x07	; 7
	.db #0xf8	; 248
	.db #0x07	; 7
	.db #0xf8	; 248
	.db #0x07	; 7
	.db #0xff	; 255
	.db #0x00	; 0
	.db #0xff	; 255
	.db #0x00	; 0
	.db #0xff	; 255
	.db #0x00	; 0
	.db #0x20	; 32
	.db #0x1f	; 31
	.db #0x00	; 0
	.db #0x3f	; 63
	.db #0x0f	; 15
	.db #0x80	; 128
	.db #0x0f	; 15
	.db #0x80	; 128
	.db #0xbf	; 191
	.db #0x00	; 0
	.db #0xfe	; 254
	.db #0x01	; 1
	.db #0xfe	; 254
	.db #0x01	; 1
	.db #0xf8	; 248
	.db #0x07	; 7
	.db #0x00	; 0
	.db #0xff	; 255
	.db #0x00	; 0
	.db #0xff	; 255
	.db #0x9f	; 159
	.db #0x60	; 96
	.db #0x1f	; 31
	.db #0xe0	; 224
	.db #0x1f	; 31
	.db #0xe0	; 224
	.db #0x3f	; 63
	.db #0xc0	; 192
	.db #0x3f	; 63
	.db #0xc0	; 192
	.db #0x7f	; 127
	.db #0x80	; 128
	.db #0x44	; 68	'D'
	.db #0x83	; 131
	.db #0x80	; 128
	.db #0x07	; 7
	.db #0x00	; 0
	.db #0xff	; 255
	.db #0x00	; 0
	.db #0xff	; 255
	.db #0x10	; 16
	.db #0xe0	; 224
	.db #0xff	; 255
	.db #0x00	; 0
	.db #0xff	; 255
	.db #0x00	; 0
	.db #0xff	; 255
	.db #0x00	; 0
	.db #0x00	; 0
	.db #0xff	; 255
	.db #0x00	; 0
	.db #0xff	; 255
	.db #0x0f	; 15
	.db #0xf0	; 240
	.db #0x1f	; 31
	.db #0xe0	; 224
	.db #0x1f	; 31
	.db #0x00	; 0
	.db #0x9f	; 159
	.db #0x00	; 0
	.db #0x9f	; 159
	.db #0x00	; 0
	.db #0xfe	; 254
	.db #0x01	; 1
	.db #0x00	; 0
	.db #0xf3	; 243
	.db #0x14	; 20
	.db #0xe3	; 227
	.db #0x80	; 128
	.db #0x7f	; 127
	.db #0x80	; 128
	.db #0x7f	; 127
	.db #0x0f	; 15
	.db #0xf0	; 240
	.db #0x00	; 0
	.db #0xf0	; 240
	.db #0x10	; 16
	.db #0xe0	; 224
	.db #0x00	; 0
	.db #0xe0	; 224
	.db #0x20	; 32
	.db #0xc0	; 192
	.db #0x20	; 32
	.db #0xc0	; 192
	.db #0x0f	; 15
	.db #0xf0	; 240
	.db #0x0f	; 15
	.db #0xf0	; 240
	.db #0xff	; 255
	.db #0x00	; 0
	.db #0x0f	; 15
	.db #0x00	; 0
	.db #0x1f	; 31
	.db #0x00	; 0
	.db #0x1f	; 31
	.db #0x00	; 0
	.db #0x02	; 2
	.db #0x01	; 1
	.db #0x00	; 0
	.db #0x03	; 3
	.db #0xc0	; 192
	.db #0x3f	; 63
	.db #0x80	; 128
	.db #0x7f	; 127
	.db #0x88	; 136
	.db #0x70	; 112	'p'
	.db #0xff	; 255
	.db #0x00	; 0
	.db #0xff	; 255
	.db #0x00	; 0
	.db #0xff	; 255
	.db #0x00	; 0
	.db #0x00	; 0
	.db #0xff	; 255
	.db #0x00	; 0
	.db #0xff	; 255
	.db #0x07	; 7
	.db #0xf8	; 248
	.db #0x07	; 7
	.db #0xf8	; 248
	.db #0x07	; 7
	.db #0x00	; 0
	.db #0xcf	; 207
	.db #0x00	; 0
	.db #0xcf	; 207
	.db #0x00	; 0
	.db #0xff	; 255
	.db #0x00	; 0
	.db #0x01	; 1
	.db #0xf8	; 248
	.db #0x00	; 0
	.db #0xf9	; 249
	.db #0xc7	; 199
	.db #0x38	; 56	'8'
	.db #0xc7	; 199
	.db #0x38	; 56	'8'
	.db #0xc7	; 199
	.db #0x38	; 56	'8'
	.db #0x83	; 131
	.db #0x78	; 120	'x'
	.db #0x8b	; 139
	.db #0x70	; 112	'p'
	.db #0x0b	; 11
	.db #0xf0	; 240
	.db #0x00	; 0
	.db #0xf0	; 240
	.db #0x10	; 16
	.db #0xe0	; 224
	.db #0xfc	; 252
	.db #0x03	; 3
	.db #0xf8	; 248
	.db #0x07	; 7
	.db #0xf8	; 248
	.db #0x07	; 7
	.db #0xf8	; 248
	.db #0x07	; 7
	.db #0xf1	; 241
	.db #0x0e	; 14
	.db #0xf1	; 241
	.db #0x0e	; 14
	.db #0x01	; 1
	.db #0x7e	; 126
	.db #0x40	; 64
	.db #0x3e	; 62
	.db #0x7c	; 124
	.db #0x83	; 131
	.db #0xf8	; 248
	.db #0x07	; 7
	.db #0xf8	; 248
	.db #0x07	; 7
	.db #0xff	; 255
	.db #0x00	; 0
	.db #0xff	; 255
	.db #0x00	; 0
	.db #0xff	; 255
	.db #0x00	; 0
	.db #0x20	; 32
	.db #0x1f	; 31
	.db #0x20	; 32
	.db #0x1f	; 31
	.db #0x4f	; 79	'O'
	.db #0x80	; 128
	.db #0x0f	; 15
	.db #0x80	; 128
	.db #0x9f	; 159
	.db #0x00	; 0
	.db #0xff	; 255
	.db #0x00	; 0
	.db #0xfe	; 254
	.db #0x01	; 1
	.db #0xfc	; 252
	.db #0x03	; 3
	.db #0x00	; 0
	.db #0xff	; 255
	.db #0x00	; 0
	.db #0xff	; 255
	.db #0x8f	; 143
	.db #0x70	; 112	'p'
	.db #0x9f	; 159
	.db #0x60	; 96
	.db #0x1f	; 31
	.db #0xe0	; 224
	.db #0x1f	; 31
	.db #0xe0	; 224
	.db #0x3f	; 63
	.db #0xc0	; 192
	.db #0x3f	; 63
	.db #0xc0	; 192
	.db #0x04	; 4
	.db #0xc3	; 195
	.db #0x84	; 132
	.db #0x03	; 3
	.db #0x80	; 128
	.db #0x7f	; 127
	.db #0x00	; 0
	.db #0xff	; 255
	.db #0x10	; 16
	.db #0xe0	; 224
	.db #0xff	; 255
	.db #0x00	; 0
	.db #0xff	; 255
	.db #0x00	; 0
	.db #0xff	; 255
	.db #0x00	; 0
	.db #0x00	; 0
	.db #0xff	; 255
	.db #0x00	; 0
	.db #0xff	; 255
	.db #0x0f	; 15
	.db #0xf0	; 240
	.db #0x0f	; 15
	.db #0xf0	; 240
	.db #0x0f	; 15
	.db #0x00	; 0
	.db #0x9f	; 159
	.db #0x00	; 0
	.db #0x9f	; 159
	.db #0x00	; 0
	.db #0xff	; 255
	.db #0x00	; 0
	.db #0x0a	; 10
	.db #0xf1	; 241
	.db #0x00	; 0
	.db #0xf3	; 243
	.db #0xff	; 255
	.db #0x00	; 0
	.db #0x87	; 135
	.db #0x78	; 120	'x'
	.db #0x87	; 135
	.db #0x78	; 120	'x'
	.db #0x0f	; 15
	.db #0xf0	; 240
	.db #0x03	; 3
	.db #0xf0	; 240
	.db #0x13	; 19
	.db #0xe0	; 224
	.db #0x00	; 0
	.db #0xe0	; 224
	.db #0x20	; 32
	.db #0xc0	; 192
	.db #0xf0	; 240
	.db #0x0f	; 15
	.db #0xc0	; 192
	.db #0x3f	; 63
	.db #0xc0	; 192
	.db #0x3e	; 62
	.db #0xe0	; 224
	.db #0x18	; 24
	.db #0xe0	; 224
	.db #0x18	; 24
	.db #0xe4	; 228
	.db #0x18	; 24
	.db #0x84	; 132
	.db #0x78	; 120	'x'
	.db #0x00	; 0
	.db #0x7c	; 124
	.db #0x00	; 0
	.db #0x80	; 128
	.db #0x00	; 0
	.db #0x00	; 0
	.db #0x00	; 0
	.db #0x00	; 0
	.db #0x00	; 0
	.db #0x00	; 0
	.db #0x00	; 0
	.db #0x00	; 0
	.db #0x00	; 0
	.db #0x00	; 0
	.db #0x00	; 0
	.db #0x00	; 0
	.db #0x00	; 0
	.db #0x00	; 0
	.db #0x7f	; 127
	.db #0x00	; 0
	.db #0x00	; 0
	.db #0x00	; 0
	.db #0x00	; 0
	.db #0x00	; 0
	.db #0x00	; 0
	.db #0x00	; 0
	.db #0x00	; 0
	.db #0x00	; 0
	.db #0x00	; 0
	.db #0x00	; 0
	.db #0x00	; 0
	.db #0x00	; 0
	.db #0x00	; 0
	.db #0x00	; 0
	.db #0xfe	; 254
	.db #0x00	; 0
	.db #0x00	; 0
	.db #0x00	; 0
	.db #0x00	; 0
	.db #0x00	; 0
	.db #0x00	; 0
	.db #0x00	; 0
	.db #0x00	; 0
	.db #0x00	; 0
	.db #0x00	; 0
	.db #0x00	; 0
	.db #0x00	; 0
	.db #0x00	; 0
	.db #0x00	; 0
	.db #0x00	; 0
	.db #0x0f	; 15
	.db #0x00	; 0
	.db #0x00	; 0
	.db #0x00	; 0
	.db #0x00	; 0
	.db #0x00	; 0
	.db #0x00	; 0
	.db #0x00	; 0
	.db #0x00	; 0
	.db #0x00	; 0
	.db #0x00	; 0
	.db #0x00	; 0
	.db #0x00	; 0
	.db #0x00	; 0
	.db #0x00	; 0
	.db #0x00	; 0
	.db #0xff	; 255
	.db #0x00	; 0
	.db #0x00	; 0
	.db #0x00	; 0
	.db #0x00	; 0
	.db #0x00	; 0
	.db #0x00	; 0
	.db #0x00	; 0
	.db #0x00	; 0
	.db #0x00	; 0
	.db #0x00	; 0
	.db #0x00	; 0
	.db #0x00	; 0
	.db #0x00	; 0
	.db #0x00	; 0
	.db #0x00	; 0
	.db #0xe7	; 231
	.db #0x00	; 0
	.db #0x00	; 0
	.db #0x00	; 0
	.db #0x00	; 0
	.db #0x00	; 0
	.db #0x00	; 0
	.db #0x00	; 0
	.db #0x00	; 0
	.db #0x00	; 0
	.db #0x00	; 0
	.db #0x00	; 0
	.db #0x00	; 0
	.db #0x00	; 0
	.db #0x00	; 0
	.db #0x00	; 0
	.db #0xc0	; 192
	.db #0x00	; 0
	.db #0x00	; 0
	.db #0x00	; 0
	.db #0x00	; 0
	.db #0x00	; 0
	.db #0x00	; 0
	.db #0x00	; 0
	.db #0x00	; 0
	.db #0x00	; 0
	.db #0x00	; 0
	.db #0x00	; 0
	.db #0x00	; 0
	.db #0x00	; 0
	.db #0x00	; 0
	.db #0x00	; 0
	.db #0x03	; 3
	.db #0x00	; 0
	.db #0x00	; 0
	.db #0x00	; 0
	.db #0x00	; 0
	.db #0x00	; 0
	.db #0x00	; 0
	.db #0x00	; 0
	.db #0x00	; 0
	.db #0x00	; 0
	.db #0x00	; 0
	.db #0x00	; 0
	.db #0x00	; 0
	.db #0x00	; 0
	.db #0x00	; 0
	.db #0x00	; 0
	.db #0xfb	; 251
	.db #0x00	; 0
	.db #0x00	; 0
	.db #0x00	; 0
	.db #0x00	; 0
	.db #0x00	; 0
	.db #0x00	; 0
	.db #0x00	; 0
	.db #0x00	; 0
	.db #0x00	; 0
	.db #0x00	; 0
	.db #0x00	; 0
	.db #0x00	; 0
	.db #0x00	; 0
	.db #0x00	; 0
	.db #0x00	; 0
	.db #0xe0	; 224
	.db #0x00	; 0
	.db #0x00	; 0
	.db #0x00	; 0
	.db #0x00	; 0
	.db #0x00	; 0
	.db #0x00	; 0
	.db #0x00	; 0
	.db #0x00	; 0
	.db #0x00	; 0
	.db #0x00	; 0
	.db #0x00	; 0
	.db #0x00	; 0
	.db #0x00	; 0
	.db #0x00	; 0
	.db #0x00	; 0
	.db #0x7e	; 126
	.db #0x00	; 0
	.db #0x00	; 0
	.db #0x00	; 0
	.db #0x00	; 0
	.db #0x00	; 0
	.db #0x00	; 0
	.db #0x00	; 0
	.db #0x00	; 0
	.db #0x00	; 0
	.db #0x00	; 0
	.db #0x00	; 0
	.db #0x00	; 0
	.db #0x00	; 0
	.db #0x00	; 0
	.db #0x00	; 0
	.db #0x3f	; 63
	.db #0x00	; 0
	.db #0x00	; 0
	.db #0x00	; 0
	.db #0x00	; 0
	.db #0x00	; 0
	.db #0x00	; 0
	.db #0x00	; 0
	.db #0x00	; 0
	.db #0x00	; 0
	.db #0x00	; 0
	.db #0x00	; 0
	.db #0x00	; 0
	.db #0x00	; 0
	.db #0x00	; 0
	.db #0x00	; 0
	.db #0xf3	; 243
	.db #0x00	; 0
	.db #0x00	; 0
	.db #0x00	; 0
	.db #0x00	; 0
	.db #0x00	; 0
	.db #0x00	; 0
	.db #0x00	; 0
	.db #0x00	; 0
	.db #0x00	; 0
	.db #0x00	; 0
	.db #0x00	; 0
	.db #0x00	; 0
	.db #0x00	; 0
	.db #0x00	; 0
	.db #0x00	; 0
	.db #0x7c	; 124
	.db #0x00	; 0
	.db #0x00	; 0
	.db #0x00	; 0
	.db #0x00	; 0
	.db #0x00	; 0
	.db #0x00	; 0
	.db #0x00	; 0
	.db #0x00	; 0
	.db #0x00	; 0
	.db #0x00	; 0
	.db #0x00	; 0
	.db #0x00	; 0
	.db #0x00	; 0
	.db #0x00	; 0
	.db #0x00	; 0
	.db #0x00	; 0
	.db #0x00	; 0
	.db #0x00	; 0
	.db #0x00	; 0
	.db #0x00	; 0
	.db #0x00	; 0
	.db #0x00	; 0
	.db #0x00	; 0
	.db #0x00	; 0
	.db #0x00	; 0
	.db #0x00	; 0
	.db #0x00	; 0
	.db #0x04	; 4
	.db #0x03	; 3
	.db #0x07	; 7
	.db #0x03	; 3
	.db #0x00	; 0
	.db #0x00	; 0
	.db #0x00	; 0
	.db #0x00	; 0
	.db #0x00	; 0
	.db #0x00	; 0
	.db #0x00	; 0
	.db #0x00	; 0
	.db #0x00	; 0
	.db #0x00	; 0
	.db #0x00	; 0
	.db #0x00	; 0
	.db #0x0a	; 10
	.db #0xf1	; 241
	.db #0xf9	; 249
	.db #0xfb	; 251
	.db #0x00	; 0
	.db #0x00	; 0
	.db #0x00	; 0
	.db #0x00	; 0
	.db #0x00	; 0
	.db #0x00	; 0
	.db #0x00	; 0
	.db #0x00	; 0
	.db #0x00	; 0
	.db #0x00	; 0
	.db #0x00	; 0
	.db #0x00	; 0
	.db #0x01	; 1
	.db #0xf8	; 248
	.db #0xfc	; 252
	.db #0xfd	; 253
	.db #0x00	; 0
	.db #0x00	; 0
	.db #0x00	; 0
	.db #0x00	; 0
	.db #0x00	; 0
	.db #0x00	; 0
	.db #0x00	; 0
	.db #0x00	; 0
	.db #0x00	; 0
	.db #0x00	; 0
	.db #0x00	; 0
	.db #0x00	; 0
	.db #0x02	; 2
	.db #0xfc	; 252
	.db #0xfe	; 254
	.db #0xfd	; 253
	.db #0x00	; 0
	.db #0x00	; 0
	.db #0x00	; 0
	.db #0x00	; 0
	.db #0x00	; 0
	.db #0x00	; 0
	.db #0x00	; 0
	.db #0x00	; 0
	.db #0x00	; 0
	.db #0x00	; 0
	.db #0x00	; 0
	.db #0x00	; 0
	.db #0x00	; 0
	.db #0xfc	; 252
	.db #0xf9	; 249
	.db #0xfc	; 252
	.db #0x00	; 0
	.db #0x00	; 0
	.db #0x00	; 0
	.db #0x00	; 0
	.db #0x00	; 0
	.db #0x00	; 0
	.db #0x00	; 0
	.db #0x00	; 0
	.db #0x00	; 0
	.db #0x00	; 0
	.db #0x00	; 0
	.db #0x00	; 0
	.db #0x80	; 128
	.db #0x7c	; 124
	.db #0xfc	; 252
	.db #0xfc	; 252
	.db #0x00	; 0
	.db #0x00	; 0
	.db #0x00	; 0
	.db #0x00	; 0
	.db #0x00	; 0
	.db #0x00	; 0
	.db #0x00	; 0
	.db #0x00	; 0
	.db #0x00	; 0
	.db #0x00	; 0
	.db #0x00	; 0
	.db #0x00	; 0
	.db #0x08	; 8
	.db #0x07	; 7
	.db #0x1f	; 31
	.db #0x0f	; 15
	.db #0x00	; 0
	.db #0x00	; 0
	.db #0x00	; 0
	.db #0x00	; 0
	.db #0x00	; 0
	.db #0x00	; 0
	.db #0x00	; 0
	.db #0x00	; 0
	.db #0x00	; 0
	.db #0x00	; 0
	.db #0x00	; 0
	.db #0x00	; 0
	.db #0x20	; 32
	.db #0xdf	; 223
	.db #0xff	; 255
	.db #0xdf	; 223
	.db #0x00	; 0
	.db #0x00	; 0
	.db #0x00	; 0
	.db #0x00	; 0
	.db #0x00	; 0
	.db #0x00	; 0
	.db #0x00	; 0
	.db #0x00	; 0
	.db #0x00	; 0
	.db #0x00	; 0
	.db #0x00	; 0
	.db #0x00	; 0
	.db #0x29	; 41
	.db #0xc6	; 198
	.db #0xe6	; 230
	.db #0xcf	; 207
	.db #0x00	; 0
	.db #0x00	; 0
	.db #0x00	; 0
	.db #0x00	; 0
	.db #0x00	; 0
	.db #0x00	; 0
	.db #0x00	; 0
	.db #0x00	; 0
	.db #0x00	; 0
	.db #0x00	; 0
	.db #0x00	; 0
	.db #0x00	; 0
	.db #0x10	; 16
	.db #0x0f	; 15
	.db #0x0f	; 15
	.db #0x1f	; 31
	.db #0x00	; 0
	.db #0x00	; 0
	.db #0x00	; 0
	.db #0x00	; 0
	.db #0x00	; 0
	.db #0x00	; 0
	.db #0x00	; 0
	.db #0x00	; 0
	.db #0x00	; 0
	.db #0x00	; 0
	.db #0x00	; 0
	.db #0x00	; 0
	.db #0x10	; 16
	.db #0xcf	; 207
	.db #0xdf	; 223
	.db #0xef	; 239
	.db #0x00	; 0
	.db #0x00	; 0
	.db #0x00	; 0
	.db #0x00	; 0
	.db #0x00	; 0
	.db #0x00	; 0
	.db #0x00	; 0
	.db #0x00	; 0
	.db #0x00	; 0
	.db #0x00	; 0
	.db #0x00	; 0
	.db #0x00	; 0
	.db #0x00	; 0
	.db #0xe0	; 224
	.db #0xe0	; 224
	.db #0xe0	; 224
	.db #0x00	; 0
	.db #0x00	; 0
	.db #0x0f	; 15
	.db #0x00	; 0
	.db #0x1f	; 31
	.db #0x0f	; 15
	.db #0x1f	; 31
	.db #0x00	; 0
	.db #0x00	; 0
	.db #0x00	; 0
	.db #0x00	; 0
	.db #0x00	; 0
	.db #0x00	; 0
	.db #0x00	; 0
	.db #0x00	; 0
	.db #0x00	; 0
	.db #0x06	; 6
	.db #0x03	; 3
	.db #0x06	; 6
	.db #0x03	; 3
	.db #0x06	; 6
	.db #0x83	; 131
	.db #0x87	; 135
	.db #0x03	; 3
	.db #0x07	; 7
	.db #0x03	; 3
	.db #0x06	; 6
	.db #0x03	; 3
	.db #0x06	; 6
	.db #0x03	; 3
	.db #0x00	; 0
	.db #0x00	; 0
	.db #0x1d	; 29
	.db #0x1b	; 27
	.db #0x1d	; 29
	.db #0x1b	; 27
	.db #0xfd	; 253
	.db #0x1b	; 27
	.db #0xf9	; 249
	.db #0xfb	; 251
	.db #0xf1	; 241
	.db #0x03	; 3
	.db #0x01	; 1
	.db #0x03	; 3
	.db #0x01	; 1
	.db #0x03	; 3
	.db #0x00	; 0
	.db #0x00	; 0
	.db #0x1c	; 28
	.db #0x8d	; 141
	.db #0x0c	; 12
	.db #0x8d	; 141
	.db #0x7c	; 124
	.db #0x8d	; 141
	.db #0xf8	; 248
	.db #0xfd	; 253
	.db #0x58	; 88	'X'
	.db #0xb9	; 185
	.db #0x1c	; 28
	.db #0x99	; 153
	.db #0x1c	; 28
	.db #0x8d	; 141
	.db #0x00	; 0
	.db #0x00	; 0
	.db #0x81	; 129
	.db #0xc1	; 193
	.db #0xb9	; 185
	.db #0xc1	; 193
	.db #0xfc	; 252
	.db #0xf9	; 249
	.db #0xb8	; 184
	.db #0xc0	; 192
	.db #0x80	; 128
	.db #0xc0	; 192
	.db #0xc2	; 194
	.db #0xfd	; 253
	.db #0xff	; 255
	.db #0xfd	; 253
	.db #0x00	; 0
	.db #0x00	; 0
	.db #0xc0	; 192
	.db #0x81	; 129
	.db #0xf0	; 240
	.db #0x81	; 129
	.db #0xfd	; 253
	.db #0xfc	; 252
	.db #0x0e	; 14
	.db #0xfc	; 252
	.db #0x04	; 4
	.db #0x0e	; 14
	.db #0x0f	; 15
	.db #0xfc	; 252
	.db #0xfc	; 252
	.db #0xfd	; 253
	.db #0x00	; 0
	.db #0x00	; 0
	.db #0x80	; 128
	.db #0xc0	; 192
	.db #0xb8	; 184
	.db #0xc0	; 192
	.db #0xfe	; 254
	.db #0xfc	; 252
	.db #0x84	; 132
	.db #0x7e	; 126
	.db #0x0e	; 14
	.db #0x06	; 6
	.db #0x04	; 4
	.db #0xfe	; 254
	.db #0xfe	; 254
	.db #0xfc	; 252
	.db #0x00	; 0
	.db #0x00	; 0
	.db #0x08	; 8
	.db #0x1c	; 28
	.db #0x0b	; 11
	.db #0x1c	; 28
	.db #0x1f	; 31
	.db #0x0f	; 15
	.db #0x08	; 8
	.db #0x07	; 7
	.db #0x00	; 0
	.db #0x00	; 0
	.db #0x10	; 16
	.db #0x0f	; 15
	.db #0x1f	; 31
	.db #0x0f	; 15
	.db #0x00	; 0
	.db #0x00	; 0
	.db #0x06	; 6
	.db #0x03	; 3
	.db #0x86	; 134
	.db #0x03	; 3
	.db #0xe6	; 230
	.db #0xc3	; 195
	.db #0x66	; 102	'f'
	.db #0xe3	; 227
	.db #0xe6	; 230
	.db #0x63	; 99	'c'
	.db #0x66	; 102	'f'
	.db #0xe3	; 227
	.db #0xe6	; 230
	.db #0xc3	; 195
	.db #0x00	; 0
	.db #0x00	; 0
	.db #0x0f	; 15
	.db #0x0f	; 15
	.db #0x19	; 25
	.db #0x0f	; 15
	.db #0x0f	; 15
	.db #0x19	; 25
	.db #0x1f	; 31
	.db #0x19	; 25
	.db #0x1f	; 31
	.db #0x3f	; 63
	.db #0x36	; 54	'6'
	.db #0x39	; 57	'9'
	.db #0x70	; 112	'p'
	.db #0x30	; 48	'0'
	.db #0x00	; 0
	.db #0x00	; 0
	.db #0x0c	; 12
	.db #0x18	; 24
	.db #0x8c	; 140
	.db #0x18	; 24
	.db #0x8b	; 139
	.db #0x9c	; 156
	.db #0xcf	; 207
	.db #0x9f	; 159
	.db #0x8a	; 138
	.db #0xdd	; 221
	.db #0xcd	; 205
	.db #0xd8	; 216
	.db #0xec	; 236
	.db #0xd8	; 216
	.db #0x00	; 0
	.db #0x00	; 0
	.db #0xe1	; 225
	.db #0x63	; 99	'c'
	.db #0xe1	; 225
	.db #0x63	; 99	'c'
	.db #0x41	; 65	'A'
	.db #0xe3	; 227
	.db #0xc1	; 193
	.db #0xe3	; 227
	.db #0x81	; 129
	.db #0xc3	; 195
	.db #0xe1	; 225
	.db #0xc3	; 195
	.db #0x41	; 65	'A'
	.db #0xe3	; 227
	.db #0x00	; 0
	.db #0x00	; 0
	.db #0x80	; 128
	.db #0x00	; 0
	.db #0x80	; 128
	.db #0x00	; 0
	.db #0x80	; 128
	.db #0x01	; 1
	.db #0x81	; 129
	.db #0x00	; 0
	.db #0x80	; 128
	.db #0x00	; 0
	.db #0x80	; 128
	.db #0x00	; 0
	.db #0x80	; 128
	.db #0x00	; 0
	.db #0x00	; 0
	.db #0x00	; 0
	.db #0x00	; 0
	.db #0x00	; 0
	.db #0xf0	; 240
	.db #0x00	; 0
	.db #0xf8	; 248
	.db #0xf0	; 240
	.db #0xf8	; 248
	.db #0x00	; 0
	.db #0x00	; 0
	.db #0x00	; 0
	.db #0x00	; 0
	.db #0x00	; 0
	.db #0x00	; 0
	.db #0x00	; 0
	.db #0x00	; 0
	.db #0x00	; 0
	.db #0x00	; 0
	.db #0x00	; 0
	.db #0x00	; 0
	.db #0x00	; 0
	.db #0x00	; 0
	.db #0x00	; 0
	.db #0x00	; 0
	.db #0x00	; 0
	.db #0x00	; 0
	.db #0x00	; 0
	.db #0x00	; 0
	.db #0x00	; 0
	.db #0x00	; 0
	.db #0x00	; 0
	.db #0x19	; 25
	.db #0x07	; 7
	.db #0x00	; 0
	.db #0x00	; 0
	.db #0x00	; 0
	.db #0x00	; 0
	.db #0x00	; 0
	.db #0x00	; 0
	.db #0x00	; 0
	.db #0x00	; 0
	.db #0x00	; 0
	.db #0x00	; 0
	.db #0x00	; 0
	.db #0x00	; 0
	.db #0x63	; 99	'c'
	.db #0x1f	; 31
	.db #0xff	; 255
	.db #0xff	; 255
	.db #0x00	; 0
	.db #0x00	; 0
	.db #0x00	; 0
	.db #0x00	; 0
	.db #0x00	; 0
	.db #0x00	; 0
	.db #0x00	; 0
	.db #0x00	; 0
	.db #0x00	; 0
	.db #0x00	; 0
	.db #0xf0	; 240
	.db #0x0f	; 15
	.db #0xff	; 255
	.db #0xff	; 255
	.db #0xff	; 255
	.db #0xff	; 255
	.db #0x00	; 0
	.db #0x00	; 0
	.db #0x00	; 0
	.db #0x00	; 0
	.db #0x00	; 0
	.db #0x00	; 0
	.db #0x00	; 0
	.db #0x00	; 0
	.db #0x00	; 0
	.db #0x00	; 0
	.db #0x7f	; 127
	.db #0xff	; 255
	.db #0xff	; 255
	.db #0xff	; 255
	.db #0xfb	; 251
	.db #0xfc	; 252
	.db #0x00	; 0
	.db #0x00	; 0
	.db #0x00	; 0
	.db #0x00	; 0
	.db #0x00	; 0
	.db #0x00	; 0
	.db #0x00	; 0
	.db #0x00	; 0
	.db #0x00	; 0
	.db #0x00	; 0
	.db #0xfe	; 254
	.db #0xff	; 255
	.db #0xff	; 255
	.db #0xff	; 255
	.db #0xff	; 255
	.db #0x1f	; 31
	.db #0x00	; 0
	.db #0x00	; 0
	.db #0x00	; 0
	.db #0x00	; 0
	.db #0x00	; 0
	.db #0x00	; 0
	.db #0x00	; 0
	.db #0x00	; 0
	.db #0x00	; 0
	.db #0x00	; 0
	.db #0x0f	; 15
	.db #0xf0	; 240
	.db #0xff	; 255
	.db #0xff	; 255
	.db #0xff	; 255
	.db #0xff	; 255
	.db #0x00	; 0
	.db #0x00	; 0
	.db #0x00	; 0
	.db #0x00	; 0
	.db #0x00	; 0
	.db #0x00	; 0
	.db #0x00	; 0
	.db #0x00	; 0
	.db #0x00	; 0
	.db #0x00	; 0
	.db #0x00	; 0
	.db #0x00	; 0
	.db #0xce	; 206
	.db #0xf0	; 240
	.db #0xff	; 255
	.db #0xff	; 255
	.db #0x00	; 0
	.db #0x00	; 0
	.db #0x00	; 0
	.db #0x00	; 0
	.db #0x00	; 0
	.db #0x00	; 0
	.db #0x00	; 0
	.db #0x00	; 0
	.db #0x00	; 0
	.db #0x00	; 0
	.db #0x00	; 0
	.db #0x00	; 0
	.db #0x00	; 0
	.db #0x00	; 0
	.db #0x30	; 48	'0'
	.db #0xc0	; 192
	.db #0x00	; 0
	.db #0x00	; 0
	.db #0x00	; 0
	.db #0x00	; 0
	.db #0x00	; 0
	.db #0x00	; 0
	.db #0x00	; 0
	.db #0x00	; 0
	.db #0x00	; 0
	.db #0x00	; 0
	.db #0x01	; 1
	.db #0x00	; 0
	.db #0x0b	; 11
	.db #0x07	; 7
	.db #0x2f	; 47
	.db #0x1f	; 31
	.db #0x00	; 0
	.db #0x00	; 0
	.db #0x00	; 0
	.db #0x00	; 0
	.db #0x00	; 0
	.db #0x00	; 0
	.db #0x0d	; 13
	.db #0x03	; 3
	.db #0x2f	; 47
	.db #0x1f	; 31
	.db #0x7f	; 127
	.db #0xff	; 255
	.db #0xff	; 255
	.db #0xff	; 255
	.db #0xff	; 255
	.db #0xff	; 255
	.db #0x01	; 1
	.db #0x00	; 0
	.db #0x1b	; 27
	.db #0x07	; 7
	.db #0xbf	; 191
	.db #0x7f	; 127
	.db #0xff	; 255
	.db #0xff	; 255
	.db #0xff	; 255
	.db #0xff	; 255
	.db #0xff	; 255
	.db #0xff	; 255
	.db #0xff	; 255
	.db #0xff	; 255
	.db #0xff	; 255
	.db #0xff	; 255
	.db #0xbf	; 191
	.db #0x7f	; 127
	.db #0xff	; 255
	.db #0xff	; 255
	.db #0xff	; 255
	.db #0xff	; 255
	.db #0xff	; 255
	.db #0xff	; 255
	.db #0xff	; 255
	.db #0xff	; 255
	.db #0xff	; 255
	.db #0xff	; 255
	.db #0xff	; 255
	.db #0xff	; 255
	.db #0xff	; 255
	.db #0xff	; 255
	.db #0xff	; 255
	.db #0xff	; 255
	.db #0xff	; 255
	.db #0xff	; 255
	.db #0xff	; 255
	.db #0xff	; 255
	.db #0xff	; 255
	.db #0xff	; 255
	.db #0xff	; 255
	.db #0xff	; 255
	.db #0xff	; 255
	.db #0xff	; 255
	.db #0xff	; 255
	.db #0xff	; 255
	.db #0xff	; 255
	.db #0xff	; 255
	.db #0xfc	; 252
	.db #0xf8	; 248
	.db #0xfc	; 252
	.db #0xfc	; 252
	.db #0xfe	; 254
	.db #0xfc	; 252
	.db #0xfc	; 252
	.db #0xfe	; 254
	.db #0xff	; 255
	.db #0xfe	; 254
	.db #0xfe	; 254
	.db #0xff	; 255
	.db #0xfe	; 254
	.db #0xff	; 255
	.db #0xfe	; 254
	.db #0xfc	; 252
	.db #0x0f	; 15
	.db #0x1f	; 31
	.db #0x1f	; 31
	.db #0x0f	; 15
	.db #0x0f	; 15
	.db #0x1f	; 31
	.db #0x1f	; 31
	.db #0x1f	; 31
	.db #0x3f	; 63
	.db #0x1f	; 31
	.db #0x1f	; 31
	.db #0x3f	; 63
	.db #0x7f	; 127
	.db #0x3f	; 63
	.db #0x3f	; 63
	.db #0x7f	; 127
	.db #0xf9	; 249
	.db #0xfe	; 254
	.db #0xff	; 255
	.db #0xff	; 255
	.db #0xff	; 255
	.db #0xff	; 255
	.db #0xff	; 255
	.db #0xff	; 255
	.db #0xff	; 255
	.db #0xfe	; 254
	.db #0xfc	; 252
	.db #0xfe	; 254
	.db #0xfe	; 254
	.db #0xfc	; 252
	.db #0xf8	; 248
	.db #0xfc	; 252
	.db #0x80	; 128
	.db #0x00	; 0
	.db #0xd8	; 216
	.db #0xe0	; 224
	.db #0xf9	; 249
	.db #0xfe	; 254
	.db #0xbf	; 191
	.db #0x7f	; 127
	.db #0x1b	; 27
	.db #0x07	; 7
	.db #0x01	; 1
	.db #0x00	; 0
	.db #0x00	; 0
	.db #0x00	; 0
	.db #0x00	; 0
	.db #0x00	; 0
	.db #0x00	; 0
	.db #0x00	; 0
	.db #0x00	; 0
	.db #0x00	; 0
	.db #0x00	; 0
	.db #0x00	; 0
	.db #0xa0	; 160
	.db #0xc0	; 192
	.db #0xf4	; 244
	.db #0xf8	; 248
	.db #0x7e	; 126
	.db #0xff	; 255
	.db #0x2f	; 47
	.db #0x1f	; 31
	.db #0x05	; 5
	.db #0x03	; 3
	.db #0x00	; 0
	.db #0x00	; 0
	.db #0x00	; 0
	.db #0x00	; 0
	.db #0x00	; 0
	.db #0x00	; 0
	.db #0x00	; 0
	.db #0x00	; 0
	.db #0x00	; 0
	.db #0x00	; 0
	.db #0x80	; 128
	.db #0x00	; 0
	.db #0xe0	; 224
	.db #0xc0	; 192
	.db #0xf4	; 244
	.db #0xf8	; 248
	.db #0x00	; 0
	.db #0x00	; 0
	.db #0x00	; 0
	.db #0x00	; 0
	.db #0x00	; 0
	.db #0x00	; 0
	.db #0x00	; 0
	.db #0x00	; 0
	.db #0x01	; 1
	.db #0x00	; 0
	.db #0x05	; 5
	.db #0x03	; 3
	.db #0x07	; 7
	.db #0x0f	; 15
	.db #0x3f	; 63
	.db #0x1f	; 31
	.db #0x01	; 1
	.db #0x00	; 0
	.db #0x05	; 5
	.db #0x03	; 3
	.db #0x17	; 23
	.db #0x0f	; 15
	.db #0x5f	; 95
	.db #0x3f	; 63
	.db #0x7f	; 127
	.db #0xff	; 255
	.db #0xff	; 255
	.db #0xff	; 255
	.db #0xff	; 255
	.db #0xff	; 255
	.db #0xff	; 255
	.db #0xff	; 255
	.db #0x7f	; 127
	.db #0xff	; 255
	.db #0xff	; 255
	.db #0xff	; 255
	.db #0xff	; 255
	.db #0xff	; 255
	.db #0xff	; 255
	.db #0xff	; 255
	.db #0xff	; 255
	.db #0xff	; 255
	.db #0xff	; 255
	.db #0xff	; 255
	.db #0xff	; 255
	.db #0xff	; 255
	.db #0xff	; 255
	.db #0xff	; 255
	.db #0xff	; 255
	.db #0xff	; 255
	.db #0xff	; 255
	.db #0xff	; 255
	.db #0xff	; 255
	.db #0xff	; 255
	.db #0xff	; 255
	.db #0xff	; 255
	.db #0xfe	; 254
	.db #0xff	; 255
	.db #0xfe	; 254
	.db #0xfc	; 252
	.db #0xf0	; 240
	.db #0xf8	; 248
	.db #0xf0	; 240
	.db #0xe0	; 224
	.db #0xf9	; 249
	.db #0xff	; 255
	.db #0xf0	; 240
	.db #0xe1	; 225
	.db #0xe0	; 224
	.db #0xc0	; 192
	.db #0xc0	; 192
	.db #0x80	; 128
	.db #0x00	; 0
	.db #0x00	; 0
	.db #0x00	; 0
	.db #0x00	; 0
	.db #0x00	; 0
	.db #0x00	; 0
	.db #0x00	; 0
	.db #0x00	; 0
	.db #0xff	; 255
	.db #0xff	; 255
	.db #0xf7	; 247
	.db #0xf8	; 248
	.db #0xe0	; 224
	.db #0x00	; 0
	.db #0x00	; 0
	.db #0x00	; 0
	.db #0x00	; 0
	.db #0x00	; 0
	.db #0x00	; 0
	.db #0x00	; 0
	.db #0x00	; 0
	.db #0x00	; 0
	.db #0x02	; 2
	.db #0x01	; 1
	.db #0xff	; 255
	.db #0xff	; 255
	.db #0xef	; 239
	.db #0x1f	; 31
	.db #0x07	; 7
	.db #0x0f	; 15
	.db #0x07	; 7
	.db #0x03	; 3
	.db #0x01	; 1
	.db #0x03	; 3
	.db #0x01	; 1
	.db #0x00	; 0
	.db #0xa0	; 160
	.db #0x40	; 64
	.db #0xe0	; 224
	.db #0xf0	; 240
	.db #0xf4	; 244
	.db #0xf8	; 248
	.db #0xe0	; 224
	.db #0xf0	; 240
	.db #0xc0	; 192
	.db #0xe0	; 224
	.db #0xc0	; 192
	.db #0x80	; 128
	.db #0x80	; 128
	.db #0x00	; 0
	.db #0x00	; 0
	.db #0x00	; 0
	.db #0x00	; 0
	.db #0x00	; 0
	.db #0x00	; 0
	.db #0x00	; 0
	.db #0x7f	; 127
	.db #0x7f	; 127
	.db #0xff	; 255
	.db #0x7f	; 127
	.db #0x7f	; 127
	.db #0xff	; 255
	.db #0x7f	; 127
	.db #0xff	; 255
	.db #0x7f	; 127
	.db #0xff	; 255
	.db #0x7f	; 127
	.db #0xff	; 255
	.db #0xff	; 255
	.db #0x7f	; 127
	.db #0xff	; 255
	.db #0x7f	; 127
	.db #0xff	; 255
	.db #0xff	; 255
	.db #0xff	; 255
	.db #0xff	; 255
	.db #0xff	; 255
	.db #0xff	; 255
	.db #0xff	; 255
	.db #0xff	; 255
	.db #0xfc	; 252
	.db #0xff	; 255
	.db #0xf8	; 248
	.db #0xf0	; 240
	.db #0xf0	; 240
	.db #0xe0	; 224
	.db #0xe0	; 224
	.db #0xc0	; 192
	.db #0xf8	; 248
	.db #0xf8	; 248
	.db #0xf8	; 248
	.db #0xf0	; 240
	.db #0xe0	; 224
	.db #0xf0	; 240
	.db #0xe0	; 224
	.db #0xe0	; 224
	.db #0xc0	; 192
	.db #0x00	; 0
	.db #0x00	; 0
	.db #0x00	; 0
	.db #0x00	; 0
	.db #0x00	; 0
	.db #0x00	; 0
	.db #0x00	; 0
	.db #0xbd	; 189
	.db #0x7e	; 126
	.db #0x2f	; 47
	.db #0x1f	; 31
	.db #0x05	; 5
	.db #0x03	; 3
	.db #0x01	; 1
	.db #0x00	; 0
	.db #0x00	; 0
	.db #0x00	; 0
	.db #0x00	; 0
	.db #0x00	; 0
	.db #0x00	; 0
	.db #0x00	; 0
	.db #0x00	; 0
	.db #0x00	; 0
	.db #0x00	; 0
	.db #0x00	; 0
	.db #0x80	; 128
	.db #0xc0	; 192
	.db #0xe0	; 224
	.db #0xf0	; 240
	.db #0x7a	; 122	'z'
	.db #0xfc	; 252
	.db #0x5e	; 94
	.db #0x3f	; 63
	.db #0x17	; 23
	.db #0x0f	; 15
	.db #0x05	; 5
	.db #0x03	; 3
	.db #0x01	; 1
	.db #0x00	; 0
	.db #0x00	; 0
	.db #0x00	; 0
	.db #0x00	; 0
	.db #0x00	; 0
	.db #0x00	; 0
	.db #0x00	; 0
	.db #0x00	; 0
	.db #0x00	; 0
	.db #0x00	; 0
	.db #0x00	; 0
	.db #0x80	; 128
	.db #0xc0	; 192
	.db #0xf0	; 240
	.db #0xe0	; 224
	.db #0x74	; 116	't'
	.db #0xf8	; 248
	.db #0x00	; 0
	.db #0x00	; 0
	.db #0x02	; 2
	.db #0x01	; 1
	.db #0x07	; 7
	.db #0x03	; 3
	.db #0x17	; 23
	.db #0x0f	; 15
	.db #0x3f	; 63
	.db #0x1f	; 31
	.db #0xbf	; 191
	.db #0x7f	; 127
	.db #0xff	; 255
	.db #0xff	; 255
	.db #0xff	; 255
	.db #0xff	; 255
	.db #0xff	; 255
	.db #0x7f	; 127
	.db #0xff	; 255
	.db #0xff	; 255
	.db #0xff	; 255
	.db #0xff	; 255
	.db #0xff	; 255
	.db #0xff	; 255
	.db #0xff	; 255
	.db #0xff	; 255
	.db #0xff	; 255
	.db #0xff	; 255
	.db #0xff	; 255
	.db #0xff	; 255
	.db #0xff	; 255
	.db #0xff	; 255
	.db #0xe0	; 224
	.db #0xc0	; 192
	.db #0xe0	; 224
	.db #0xc0	; 192
	.db #0xc0	; 192
	.db #0xc0	; 192
	.db #0x80	; 128
	.db #0xc0	; 192
	.db #0x80	; 128
	.db #0xc0	; 192
	.db #0x80	; 128
	.db #0xc0	; 192
	.db #0x80	; 128
	.db #0xc0	; 192
	.db #0xe0	; 224
	.db #0xc0	; 192
	.db #0x00	; 0
	.db #0x00	; 0
	.db #0x00	; 0
	.db #0x00	; 0
	.db #0x06	; 6
	.db #0x03	; 3
	.db #0x03	; 3
	.db #0x07	; 7
	.db #0x0f	; 15
	.db #0x07	; 7
	.db #0x1f	; 31
	.db #0x0f	; 15
	.db #0x3f	; 63
	.db #0x1f	; 31
	.db #0x3f	; 63
	.db #0x7f	; 127
	.db #0x07	; 7
	.db #0x03	; 3
	.db #0x0f	; 15
	.db #0x07	; 7
	.db #0xef	; 239
	.db #0x1f	; 31
	.db #0xff	; 255
	.db #0xff	; 255
	.db #0xff	; 255
	.db #0xff	; 255
	.db #0xff	; 255
	.db #0xff	; 255
	.db #0xff	; 255
	.db #0xff	; 255
	.db #0xff	; 255
	.db #0xff	; 255
	.db #0xf8	; 248
	.db #0xf0	; 240
	.db #0xfc	; 252
	.db #0xf8	; 248
	.db #0xfc	; 252
	.db #0xfe	; 254
	.db #0xfe	; 254
	.db #0xff	; 255
	.db #0xff	; 255
	.db #0xff	; 255
	.db #0xff	; 255
	.db #0xff	; 255
	.db #0xff	; 255
	.db #0xff	; 255
	.db #0xfe	; 254
	.db #0xff	; 255
	.db #0x00	; 0
	.db #0x00	; 0
	.db #0x00	; 0
	.db #0x00	; 0
	.db #0x00	; 0
	.db #0x00	; 0
	.db #0x00	; 0
	.db #0x00	; 0
	.db #0x80	; 128
	.db #0x00	; 0
	.db #0x80	; 128
	.db #0x00	; 0
	.db #0x80	; 128
	.db #0x00	; 0
	.db #0x00	; 0
	.db #0x00	; 0
	.db #0x7f	; 127
	.db #0x7f	; 127
	.db #0x3f	; 63
	.db #0x7f	; 127
	.db #0x7f	; 127
	.db #0x3f	; 63
	.db #0x3f	; 63
	.db #0x3f	; 63
	.db #0x3f	; 63
	.db #0x1f	; 31
	.db #0x1f	; 31
	.db #0x1f	; 31
	.db #0x1f	; 31
	.db #0x0f	; 15
	.db #0x07	; 7
	.db #0x0f	; 15
	.db #0xff	; 255
	.db #0xff	; 255
	.db #0xff	; 255
	.db #0xff	; 255
	.db #0xfe	; 254
	.db #0xff	; 255
	.db #0xfe	; 254
	.db #0xfe	; 254
	.db #0xfe	; 254
	.db #0xfc	; 252
	.db #0xfc	; 252
	.db #0xf8	; 248
	.db #0xf8	; 248
	.db #0xf0	; 240
	.db #0xe0	; 224
	.db #0xf0	; 240
	.db #0x80	; 128
	.db #0xc0	; 192
	.db #0x00	; 0
	.db #0x80	; 128
	.db #0x00	; 0
	.db #0x00	; 0
	.db #0x02	; 2
	.db #0x01	; 1
	.db #0x07	; 7
	.db #0x0f	; 15
	.db #0x1f	; 31
	.db #0x0f	; 15
	.db #0x1f	; 31
	.db #0x0f	; 15
	.db #0x0f	; 15
	.db #0x07	; 7
	.db #0x00	; 0
	.db #0x00	; 0
	.db #0x14	; 20
	.db #0x08	; 8
	.db #0xbc	; 188
	.db #0x7e	; 126
	.db #0xfe	; 254
	.db #0xff	; 255
	.db #0xff	; 255
	.db #0xff	; 255
	.db #0xff	; 255
	.db #0xfe	; 254
	.db #0xfc	; 252
	.db #0xfe	; 254
	.db #0xfc	; 252
	.db #0xfc	; 252
	.db #0x5d	; 93
	.db #0x3e	; 62
	.db #0x1f	; 31
	.db #0x0f	; 15
	.db #0x03	; 3
	.db #0x07	; 7
	.db #0x02	; 2
	.db #0x01	; 1
	.db #0x00	; 0
	.db #0x00	; 0
	.db #0x63	; 99	'c'
	.db #0x1f	; 31
	.db #0x3f	; 63
	.db #0x7f	; 127
	.db #0x3f	; 63
	.db #0x7f	; 127
	.db #0x00	; 0
	.db #0x00	; 0
	.db #0x80	; 128
	.db #0x00	; 0
	.db #0xa0	; 160
	.db #0xc0	; 192
	.db #0xe0	; 224
	.db #0xf0	; 240
	.db #0x7c	; 124
	.db #0xf8	; 248
	.db #0xfc	; 252
	.db #0xfe	; 254
	.db #0xfe	; 254
	.db #0xff	; 255
	.db #0xff	; 255
	.db #0xff	; 255
_start_map:
	.db #0x00	; 0
	.db #0x00	; 0
	.db #0x00	; 0
	.db #0x00	; 0
	.db #0x00	; 0
	.db #0x00	; 0
	.db #0x00	; 0
	.db #0x00	; 0
	.db #0x00	; 0
	.db #0x00	; 0
	.db #0x00	; 0
	.db #0x00	; 0
	.db #0x00	; 0
	.db #0x00	; 0
	.db #0x00	; 0
	.db #0x00	; 0
	.db #0x00	; 0
	.db #0x00	; 0
	.db #0x00	; 0
	.db #0x00	; 0
	.db #0x00	; 0
	.db #0x00	; 0
	.db #0x00	; 0
	.db #0x00	; 0
	.db #0x00	; 0
	.db #0x00	; 0
	.db #0x00	; 0
	.db #0x00	; 0
	.db #0x00	; 0
	.db #0x00	; 0
	.db #0x00	; 0
	.db #0x00	; 0
	.db #0x00	; 0
	.db #0x00	; 0
	.db #0x00	; 0
	.db #0x00	; 0
	.db #0x00	; 0
	.db #0x00	; 0
	.db #0x00	; 0
	.db #0x00	; 0
	.db #0x00	; 0
	.db #0x00	; 0
	.db #0x00	; 0
	.db #0x00	; 0
	.db #0x00	; 0
	.db #0x00	; 0
	.db #0x00	; 0
	.db #0x00	; 0
	.db #0x00	; 0
	.db #0x00	; 0
	.db #0x00	; 0
	.db #0x00	; 0
	.db #0x00	; 0
	.db #0x00	; 0
	.db #0x00	; 0
	.db #0x00	; 0
	.db #0x00	; 0
	.db #0x00	; 0
	.db #0x00	; 0
	.db #0x00	; 0
	.db #0x00	; 0
	.db #0x00	; 0
	.db #0x00	; 0
	.db #0x00	; 0
	.db #0x00	; 0
	.db #0x01	; 1
	.db #0x02	; 2
	.db #0x03	; 3
	.db #0x04	; 4
	.db #0x05	; 5
	.db #0x06	; 6
	.db #0x07	; 7
	.db #0x08	; 8
	.db #0x09	; 9
	.db #0x0a	; 10
	.db #0x0b	; 11
	.db #0x00	; 0
	.db #0x00	; 0
	.db #0x00	; 0
	.db #0x00	; 0
	.db #0x00	; 0
	.db #0x00	; 0
	.db #0x00	; 0
	.db #0x00	; 0
	.db #0x0c	; 12
	.db #0x0d	; 13
	.db #0x0e	; 14
	.db #0x0f	; 15
	.db #0x10	; 16
	.db #0x11	; 17
	.db #0x12	; 18
	.db #0x13	; 19
	.db #0x14	; 20
	.db #0x15	; 21
	.db #0x16	; 22
	.db #0x00	; 0
	.db #0x00	; 0
	.db #0x00	; 0
	.db #0x00	; 0
	.db #0x00	; 0
	.db #0x00	; 0
	.db #0x00	; 0
	.db #0x00	; 0
	.db #0x00	; 0
	.db #0x17	; 23
	.db #0x18	; 24
	.db #0x19	; 25
	.db #0x1a	; 26
	.db #0x1b	; 27
	.db #0x1c	; 28
	.db #0x1d	; 29
	.db #0x1e	; 30
	.db #0x1f	; 31
	.db #0x20	; 32
	.db #0x21	; 33
	.db #0x00	; 0
	.db #0x00	; 0
	.db #0x00	; 0
	.db #0x00	; 0
	.db #0x00	; 0
	.db #0x00	; 0
	.db #0x22	; 34
	.db #0x23	; 35
	.db #0x24	; 36
	.db #0x23	; 35
	.db #0x25	; 37
	.db #0x26	; 38
	.db #0x27	; 39
	.db #0x28	; 40
	.db #0x29	; 41
	.db #0x2a	; 42
	.db #0x2b	; 43
	.db #0x2c	; 44
	.db #0x23	; 35
	.db #0x2d	; 45
	.db #0x23	; 35
	.db #0x2e	; 46
	.db #0x26	; 38
	.db #0x2f	; 47
	.db #0x00	; 0
	.db #0x00	; 0
	.db #0x30	; 48	'0'
	.db #0x31	; 49	'1'
	.db #0x32	; 50	'2'
	.db #0x33	; 51	'3'
	.db #0x34	; 52	'4'
	.db #0x35	; 53	'5'
	.db #0x36	; 54	'6'
	.db #0x37	; 55	'7'
	.db #0x38	; 56	'8'
	.db #0x39	; 57	'9'
	.db #0x3a	; 58
	.db #0x3b	; 59
	.db #0x3c	; 60
	.db #0x3d	; 61
	.db #0x3e	; 62
	.db #0x3f	; 63
	.db #0x40	; 64
	.db #0x41	; 65	'A'
	.db #0x42	; 66	'B'
	.db #0x43	; 67	'C'
	.db #0x44	; 68	'D'
	.db #0x45	; 69	'E'
	.db #0x46	; 70	'F'
	.db #0x47	; 71	'G'
	.db #0x48	; 72	'H'
	.db #0x49	; 73	'I'
	.db #0x4a	; 74	'J'
	.db #0x4b	; 75	'K'
	.db #0x4c	; 76	'L'
	.db #0x4d	; 77	'M'
	.db #0x4e	; 78	'N'
	.db #0x4f	; 79	'O'
	.db #0x50	; 80	'P'
	.db #0x51	; 81	'Q'
	.db #0x52	; 82	'R'
	.db #0x53	; 83	'S'
	.db #0x54	; 84	'T'
	.db #0x55	; 85	'U'
	.db #0x56	; 86	'V'
	.db #0x00	; 0
	.db #0x57	; 87	'W'
	.db #0x58	; 88	'X'
	.db #0x59	; 89	'Y'
	.db #0x5a	; 90	'Z'
	.db #0x5b	; 91
	.db #0x5c	; 92
	.db #0x5d	; 93
	.db #0x5a	; 90	'Z'
	.db #0x5e	; 94
	.db #0x5f	; 95
	.db #0x60	; 96
	.db #0x61	; 97	'a'
	.db #0x58	; 88	'X'
	.db #0x1e	; 30
	.db #0x5a	; 90	'Z'
	.db #0x62	; 98	'b'
	.db #0x5f	; 95
	.db #0x63	; 99	'c'
	.db #0x00	; 0
	.db #0x00	; 0
	.db #0x00	; 0
	.db #0x00	; 0
	.db #0x00	; 0
	.db #0x00	; 0
	.db #0x00	; 0
	.db #0x00	; 0
	.db #0x00	; 0
	.db #0x00	; 0
	.db #0x00	; 0
	.db #0x00	; 0
	.db #0x00	; 0
	.db #0x00	; 0
	.db #0x00	; 0
	.db #0x00	; 0
	.db #0x00	; 0
	.db #0x00	; 0
	.db #0x00	; 0
	.db #0x00	; 0
	.db #0x00	; 0
	.db #0x00	; 0
	.db #0x00	; 0
	.db #0x00	; 0
	.db #0x00	; 0
	.db #0x64	; 100	'd'
	.db #0x65	; 101	'e'
	.db #0x66	; 102	'f'
	.db #0x67	; 103	'g'
	.db #0x68	; 104	'h'
	.db #0x69	; 105	'i'
	.db #0x6a	; 106	'j'
	.db #0x6b	; 107	'k'
	.db #0x6c	; 108	'l'
	.db #0x6d	; 109	'm'
	.db #0x6e	; 110	'n'
	.db #0x6f	; 111	'o'
	.db #0x00	; 0
	.db #0x00	; 0
	.db #0x00	; 0
	.db #0x00	; 0
	.db #0x00	; 0
	.db #0x00	; 0
	.db #0x00	; 0
	.db #0x70	; 112	'p'
	.db #0x71	; 113	'q'
	.db #0x72	; 114	'r'
	.db #0x73	; 115	's'
	.db #0x74	; 116	't'
	.db #0x75	; 117	'u'
	.db #0x76	; 118	'v'
	.db #0x77	; 119	'w'
	.db #0x78	; 120	'x'
	.db #0x79	; 121	'y'
	.db #0x7a	; 122	'z'
	.db #0x7b	; 123
	.db #0x7c	; 124
	.db #0x7d	; 125
	.db #0x00	; 0
	.db #0x00	; 0
	.db #0x00	; 0
	.db #0x00	; 0
	.db #0x00	; 0
	.db #0x00	; 0
	.db #0x00	; 0
	.db #0x00	; 0
	.db #0x00	; 0
	.db #0x00	; 0
	.db #0x00	; 0
	.db #0x00	; 0
	.db #0x00	; 0
	.db #0x00	; 0
	.db #0x00	; 0
	.db #0x00	; 0
	.db #0x00	; 0
	.db #0x00	; 0
	.db #0x00	; 0
	.db #0x00	; 0
	.db #0x00	; 0
	.db #0x00	; 0
	.db #0x00	; 0
	.db #0x00	; 0
	.db #0x00	; 0
	.db #0x00	; 0
	.db #0x00	; 0
	.db #0x00	; 0
	.db #0x00	; 0
	.db #0x7e	; 126
	.db #0x7f	; 127
	.db #0x80	; 128
	.db #0x81	; 129
	.db #0x82	; 130
	.db #0x83	; 131
	.db #0x84	; 132
	.db #0x85	; 133
	.db #0x00	; 0
	.db #0x00	; 0
	.db #0x00	; 0
	.db #0x00	; 0
	.db #0x00	; 0
	.db #0x00	; 0
	.db #0x00	; 0
	.db #0x00	; 0
	.db #0x00	; 0
	.db #0x86	; 134
	.db #0x87	; 135
	.db #0x88	; 136
	.db #0x89	; 137
	.db #0x8a	; 138
	.db #0x8a	; 138
	.db #0x8b	; 139
	.db #0x8c	; 140
	.db #0x8a	; 138
	.db #0x8a	; 138
	.db #0x8d	; 141
	.db #0x8e	; 142
	.db #0x8f	; 143
	.db #0x90	; 144
	.db #0x00	; 0
	.db #0x00	; 0
	.db #0x00	; 0
	.db #0x00	; 0
	.db #0x91	; 145
	.db #0x92	; 146
	.db #0x93	; 147
	.db #0x8a	; 138
	.db #0x94	; 148
	.db #0x95	; 149
	.db #0x96	; 150
	.db #0x97	; 151
	.db #0x98	; 152
	.db #0x99	; 153
	.db #0x8a	; 138
	.db #0x9a	; 154
	.db #0x9b	; 155
	.db #0x00	; 0
	.db #0x00	; 0
	.db #0x9c	; 156
	.db #0x9d	; 157
	.db #0x9e	; 158
	.db #0x00	; 0
	.db #0x9f	; 159
	.db #0xa0	; 160
	.db #0x8a	; 138
	.db #0x8a	; 138
	.db #0x8a	; 138
	.db #0xa1	; 161
	.db #0xa2	; 162
	.db #0xa3	; 163
	.db #0xa4	; 164
	.db #0xa5	; 165
	.db #0xa6	; 166
	.db #0xa7	; 167
	.db #0xa8	; 168
	.db #0xa9	; 169
	.db #0x00	; 0
	.db #0x00	; 0
	.db #0x00	; 0
	.db #0x00	; 0
	.db #0xaa	; 170
	.db #0xab	; 171
_sprites:
	.db #0x00	; 0
	.db #0x00	; 0
	.db #0x00	; 0
	.db #0x00	; 0
	.db #0x00	; 0
	.db #0x00	; 0
	.db #0x00	; 0
	.db #0x00	; 0
	.db #0x00	; 0
	.db #0x00	; 0
	.db #0x00	; 0
	.db #0x00	; 0
	.db #0x00	; 0
	.db #0x00	; 0
	.db #0x00	; 0
	.db #0x00	; 0
	.db #0x00	; 0
	.db #0x00	; 0
	.db #0xc0	; 192
	.db #0xc0	; 192
	.db #0xf0	; 240
	.db #0xf0	; 240
	.db #0xfc	; 252
	.db #0xfc	; 252
	.db #0xfc	; 252
	.db #0xfc	; 252
	.db #0xf0	; 240
	.db #0xf0	; 240
	.db #0xc0	; 192
	.db #0xc0	; 192
	.db #0x00	; 0
	.db #0x00	; 0
	.db #0x00	; 0
	.db #0x00	; 0
	.db #0x01	; 1
	.db #0x00	; 0
	.db #0x01	; 1
	.db #0x00	; 0
	.db #0x00	; 0
	.db #0x01	; 1
	.db #0x01	; 1
	.db #0x03	; 3
	.db #0x23	; 35
	.db #0x02	; 2
	.db #0x01	; 1
	.db #0x20	; 32
	.db #0x00	; 0
	.db #0x21	; 33
	.db #0x00	; 0
	.db #0x00	; 0
	.db #0x80	; 128
	.db #0x00	; 0
	.db #0x80	; 128
	.db #0x00	; 0
	.db #0x00	; 0
	.db #0x80	; 128
	.db #0x80	; 128
	.db #0xc0	; 192
	.db #0xc4	; 196
	.db #0x40	; 64
	.db #0x80	; 128
	.db #0x04	; 4
	.db #0x00	; 0
	.db #0x84	; 132
	.db #0x23	; 35
	.db #0x22	; 34
	.db #0x63	; 99	'c'
	.db #0x22	; 34
	.db #0x32	; 50	'2'
	.db #0x73	; 115	's'
	.db #0x54	; 84	'T'
	.db #0x77	; 119	'w'
	.db #0x2e	; 46
	.db #0x39	; 57	'9'
	.db #0x1f	; 31
	.db #0x14	; 20
	.db #0x02	; 2
	.db #0x03	; 3
	.db #0x00	; 0
	.db #0x00	; 0
	.db #0xc4	; 196
	.db #0x44	; 68	'D'
	.db #0xc6	; 198
	.db #0x44	; 68	'D'
	.db #0x4c	; 76	'L'
	.db #0xce	; 206
	.db #0x2a	; 42
	.db #0xee	; 238
	.db #0x74	; 116	't'
	.db #0x9c	; 156
	.db #0xf8	; 248
	.db #0x28	; 40
	.db #0x40	; 64
	.db #0xc0	; 192
	.db #0x00	; 0
	.db #0x00	; 0
	.db #0x00	; 0
	.db #0x00	; 0
	.db #0x00	; 0
	.db #0x20	; 32
	.db #0x00	; 0
	.db #0x20	; 32
	.db #0x20	; 32
	.db #0x00	; 0
	.db #0x20	; 32
	.db #0x00	; 0
	.db #0x00	; 0
	.db #0x20	; 32
	.db #0x00	; 0
	.db #0x20	; 32
	.db #0x00	; 0
	.db #0x00	; 0
	.db #0x00	; 0
	.db #0x00	; 0
	.db #0x00	; 0
	.db #0x04	; 4
	.db #0x00	; 0
	.db #0x04	; 4
	.db #0x04	; 4
	.db #0x00	; 0
	.db #0x04	; 4
	.db #0x00	; 0
	.db #0x00	; 0
	.db #0x04	; 4
	.db #0x00	; 0
	.db #0x04	; 4
	.db #0x00	; 0
	.db #0x00	; 0
	.db #0x00	; 0
	.db #0x00	; 0
	.db #0x20	; 32
	.db #0x00	; 0
	.db #0x20	; 32
	.db #0x00	; 0
	.db #0x00	; 0
	.db #0x20	; 32
	.db #0x00	; 0
	.db #0x20	; 32
	.db #0x20	; 32
	.db #0x00	; 0
	.db #0x20	; 32
	.db #0x00	; 0
	.db #0x00	; 0
	.db #0x00	; 0
	.db #0x00	; 0
	.db #0x00	; 0
	.db #0x04	; 4
	.db #0x00	; 0
	.db #0x04	; 4
	.db #0x00	; 0
	.db #0x00	; 0
	.db #0x04	; 4
	.db #0x00	; 0
	.db #0x04	; 4
	.db #0x04	; 4
	.db #0x00	; 0
	.db #0x04	; 4
	.db #0x00	; 0
	.db #0x00	; 0
	.db #0x00	; 0
	.db #0x00	; 0
	.db #0x00	; 0
	.db #0x00	; 0
	.db #0x00	; 0
	.db #0x00	; 0
	.db #0x18	; 24
	.db #0x00	; 0
	.db #0x18	; 24
	.db #0x18	; 24
	.db #0x3c	; 60
	.db #0x3c	; 60
	.db #0x3c	; 60
	.db #0x18	; 24
	.db #0x00	; 0
	.db #0x18	; 24
	.db #0x00	; 0
	.db #0x00	; 0
	.db #0x18	; 24
	.db #0x18	; 24
	.db #0x00	; 0
	.db #0x18	; 24
	.db #0x24	; 36
	.db #0x3c	; 60
	.db #0x24	; 36
	.db #0x3c	; 60
	.db #0x66	; 102	'f'
	.db #0x42	; 66	'B'
	.db #0x5a	; 90	'Z'
	.db #0x00	; 0
	.db #0x00	; 0
	.db #0x00	; 0
	.db #0x00	; 0
	.db #0x00	; 0
	.db #0x00	; 0
	.db #0x03	; 3
	.db #0x03	; 3
	.db #0x0f	; 15
	.db #0x0c	; 12
	.db #0x1c	; 28
	.db #0x13	; 19
	.db #0x3b	; 59
	.db #0x26	; 38
	.db #0x3f	; 63
	.db #0x20	; 32
	.db #0x67	; 103	'g'
	.db #0x58	; 88	'X'
	.db #0x5f	; 95
	.db #0x70	; 112	'p'
	.db #0x00	; 0
	.db #0x00	; 0
	.db #0xc0	; 192
	.db #0xc0	; 192
	.db #0xe0	; 224
	.db #0x20	; 32
	.db #0xf8	; 248
	.db #0x18	; 24
	.db #0xfc	; 252
	.db #0x04	; 4
	.db #0xfc	; 252
	.db #0x04	; 4
	.db #0xbe	; 190
	.db #0x42	; 66	'B'
	.db #0x7e	; 126
	.db #0xc2	; 194
	.db #0x7f	; 127
	.db #0x40	; 64
	.db #0x63	; 99	'c'
	.db #0x5c	; 92
	.db #0x3d	; 61
	.db #0x2e	; 46
	.db #0x3d	; 61
	.db #0x22	; 34
	.db #0x1f	; 31
	.db #0x18	; 24
	.db #0x07	; 7
	.db #0x04	; 4
	.db #0x03	; 3
	.db #0x03	; 3
	.db #0x00	; 0
	.db #0x00	; 0
	.db #0xf6	; 246
	.db #0x0e	; 14
	.db #0xe0	; 224
	.db #0x18	; 24
	.db #0xc0	; 192
	.db #0x20	; 32
	.db #0xc0	; 192
	.db #0x60	; 96
	.db #0x80	; 128
	.db #0x40	; 64
	.db #0x80	; 128
	.db #0x80	; 128
	.db #0x80	; 128
	.db #0x80	; 128
	.db #0x00	; 0
	.db #0x00	; 0
	.db #0x00	; 0
	.db #0x00	; 0
	.db #0x07	; 7
	.db #0x07	; 7
	.db #0x0f	; 15
	.db #0x08	; 8
	.db #0x1f	; 31
	.db #0x10	; 16
	.db #0x1d	; 29
	.db #0x12	; 18
	.db #0x3d	; 61
	.db #0x26	; 38
	.db #0x7b	; 123
	.db #0x4c	; 76	'L'
	.db #0x77	; 119	'w'
	.db #0x48	; 72	'H'
	.db #0x00	; 0
	.db #0x00	; 0
	.db #0xc0	; 192
	.db #0xc0	; 192
	.db #0xf8	; 248
	.db #0x38	; 56	'8'
	.db #0xfc	; 252
	.db #0x04	; 4
	.db #0xfe	; 254
	.db #0x02	; 2
	.db #0xbe	; 190
	.db #0x62	; 98	'b'
	.db #0xce	; 206
	.db #0x32	; 50	'2'
	.db #0xfe	; 254
	.db #0x02	; 2
	.db #0x7f	; 127
	.db #0x40	; 64
	.db #0x77	; 119	'w'
	.db #0x48	; 72	'H'
	.db #0x77	; 119	'w'
	.db #0x4c	; 76	'L'
	.db #0x3b	; 59
	.db #0x24	; 36
	.db #0x1f	; 31
	.db #0x10	; 16
	.db #0x0f	; 15
	.db #0x0e	; 14
	.db #0x01	; 1
	.db #0x01	; 1
	.db #0x00	; 0
	.db #0x00	; 0
	.db #0xfe	; 254
	.db #0x02	; 2
	.db #0x8e	; 142
	.db #0x72	; 114	'r'
	.db #0x7c	; 124
	.db #0xe4	; 228
	.db #0x7c	; 124
	.db #0x84	; 132
	.db #0xf8	; 248
	.db #0x18	; 24
	.db #0xe0	; 224
	.db #0x20	; 32
	.db #0xc0	; 192
	.db #0xc0	; 192
	.db #0x00	; 0
	.db #0x00	; 0
_bkg:
	.db #0x00	; 0
	.db #0x00	; 0
	.db #0x00	; 0
	.db #0x00	; 0
	.db #0x00	; 0
	.db #0x00	; 0
	.db #0x00	; 0
	.db #0x00	; 0
	.db #0x00	; 0
	.db #0x00	; 0
	.db #0x00	; 0
	.db #0x00	; 0
	.db #0x00	; 0
	.db #0x00	; 0
	.db #0x00	; 0
	.db #0x00	; 0
	.db #0x00	; 0
	.db #0x00	; 0
	.db #0x78	; 120	'x'
	.db #0x78	; 120	'x'
	.db #0xcc	; 204
	.db #0xcc	; 204
	.db #0xcc	; 204
	.db #0xcc	; 204
	.db #0xcc	; 204
	.db #0xcc	; 204
	.db #0xcc	; 204
	.db #0xcc	; 204
	.db #0x78	; 120	'x'
	.db #0x78	; 120	'x'
	.db #0x00	; 0
	.db #0x00	; 0
	.db #0x00	; 0
	.db #0x00	; 0
	.db #0x30	; 48	'0'
	.db #0x30	; 48	'0'
	.db #0x70	; 112	'p'
	.db #0x70	; 112	'p'
	.db #0x30	; 48	'0'
	.db #0x30	; 48	'0'
	.db #0x30	; 48	'0'
	.db #0x30	; 48	'0'
	.db #0x30	; 48	'0'
	.db #0x30	; 48	'0'
	.db #0x78	; 120	'x'
	.db #0x78	; 120	'x'
	.db #0x00	; 0
	.db #0x00	; 0
	.db #0x00	; 0
	.db #0x00	; 0
	.db #0x78	; 120	'x'
	.db #0x78	; 120	'x'
	.db #0x9c	; 156
	.db #0x9c	; 156
	.db #0x1c	; 28
	.db #0x1c	; 28
	.db #0x78	; 120	'x'
	.db #0x78	; 120	'x'
	.db #0xc0	; 192
	.db #0xc0	; 192
	.db #0xfc	; 252
	.db #0xfc	; 252
	.db #0x00	; 0
	.db #0x00	; 0
	.db #0x00	; 0
	.db #0x00	; 0
	.db #0xf8	; 248
	.db #0xf8	; 248
	.db #0x1c	; 28
	.db #0x1c	; 28
	.db #0x78	; 120	'x'
	.db #0x78	; 120	'x'
	.db #0x1c	; 28
	.db #0x1c	; 28
	.db #0x1c	; 28
	.db #0x1c	; 28
	.db #0xf8	; 248
	.db #0xf8	; 248
	.db #0x00	; 0
	.db #0x00	; 0
	.db #0x00	; 0
	.db #0x00	; 0
	.db #0x78	; 120	'x'
	.db #0x78	; 120	'x'
	.db #0xd8	; 216
	.db #0xd8	; 216
	.db #0x98	; 152
	.db #0x98	; 152
	.db #0x9c	; 156
	.db #0x9c	; 156
	.db #0xfc	; 252
	.db #0xfc	; 252
	.db #0x18	; 24
	.db #0x18	; 24
	.db #0x00	; 0
	.db #0x00	; 0
	.db #0x00	; 0
	.db #0x00	; 0
	.db #0xf8	; 248
	.db #0xf8	; 248
	.db #0xc0	; 192
	.db #0xc0	; 192
	.db #0xf8	; 248
	.db #0xf8	; 248
	.db #0x1c	; 28
	.db #0x1c	; 28
	.db #0x9c	; 156
	.db #0x9c	; 156
	.db #0x78	; 120	'x'
	.db #0x78	; 120	'x'
	.db #0x00	; 0
	.db #0x00	; 0
	.db #0x00	; 0
	.db #0x00	; 0
	.db #0x78	; 120	'x'
	.db #0x78	; 120	'x'
	.db #0xc0	; 192
	.db #0xc0	; 192
	.db #0xf8	; 248
	.db #0xf8	; 248
	.db #0xcc	; 204
	.db #0xcc	; 204
	.db #0xcc	; 204
	.db #0xcc	; 204
	.db #0x78	; 120	'x'
	.db #0x78	; 120	'x'
	.db #0x00	; 0
	.db #0x00	; 0
	.db #0x00	; 0
	.db #0x00	; 0
	.db #0xfc	; 252
	.db #0xfc	; 252
	.db #0x0c	; 12
	.db #0x0c	; 12
	.db #0x18	; 24
	.db #0x18	; 24
	.db #0x30	; 48	'0'
	.db #0x30	; 48	'0'
	.db #0x70	; 112	'p'
	.db #0x70	; 112	'p'
	.db #0x70	; 112	'p'
	.db #0x70	; 112	'p'
	.db #0x00	; 0
	.db #0x00	; 0
	.db #0x00	; 0
	.db #0x00	; 0
	.db #0x78	; 120	'x'
	.db #0x78	; 120	'x'
	.db #0x9c	; 156
	.db #0x9c	; 156
	.db #0x78	; 120	'x'
	.db #0x78	; 120	'x'
	.db #0x9c	; 156
	.db #0x9c	; 156
	.db #0x9c	; 156
	.db #0x9c	; 156
	.db #0x78	; 120	'x'
	.db #0x78	; 120	'x'
	.db #0x00	; 0
	.db #0x00	; 0
	.db #0x00	; 0
	.db #0x00	; 0
	.db #0x78	; 120	'x'
	.db #0x78	; 120	'x'
	.db #0x9c	; 156
	.db #0x9c	; 156
	.db #0x9c	; 156
	.db #0x9c	; 156
	.db #0x7c	; 124
	.db #0x7c	; 124
	.db #0x1c	; 28
	.db #0x1c	; 28
	.db #0x70	; 112	'p'
	.db #0x70	; 112	'p'
	.db #0x00	; 0
	.db #0x00	; 0
	.db #0x00	; 0
	.db #0x00	; 0
	.db #0x78	; 120	'x'
	.db #0x78	; 120	'x'
	.db #0x9c	; 156
	.db #0x9c	; 156
	.db #0x9c	; 156
	.db #0x9c	; 156
	.db #0xfc	; 252
	.db #0xfc	; 252
	.db #0x9c	; 156
	.db #0x9c	; 156
	.db #0x9c	; 156
	.db #0x9c	; 156
	.db #0x00	; 0
	.db #0x00	; 0
	.db #0x00	; 0
	.db #0x00	; 0
	.db #0xf8	; 248
	.db #0xf8	; 248
	.db #0xcc	; 204
	.db #0xcc	; 204
	.db #0xf8	; 248
	.db #0xf8	; 248
	.db #0xcc	; 204
	.db #0xcc	; 204
	.db #0xcc	; 204
	.db #0xcc	; 204
	.db #0xf8	; 248
	.db #0xf8	; 248
	.db #0x00	; 0
	.db #0x00	; 0
	.db #0x00	; 0
	.db #0x00	; 0
	.db #0x78	; 120	'x'
	.db #0x78	; 120	'x'
	.db #0xcc	; 204
	.db #0xcc	; 204
	.db #0xc0	; 192
	.db #0xc0	; 192
	.db #0xc0	; 192
	.db #0xc0	; 192
	.db #0xcc	; 204
	.db #0xcc	; 204
	.db #0x78	; 120	'x'
	.db #0x78	; 120	'x'
	.db #0x00	; 0
	.db #0x00	; 0
	.db #0x00	; 0
	.db #0x00	; 0
	.db #0xf8	; 248
	.db #0xf8	; 248
	.db #0x9c	; 156
	.db #0x9c	; 156
	.db #0x9c	; 156
	.db #0x9c	; 156
	.db #0x9c	; 156
	.db #0x9c	; 156
	.db #0x9c	; 156
	.db #0x9c	; 156
	.db #0xf8	; 248
	.db #0xf8	; 248
	.db #0x00	; 0
	.db #0x00	; 0
	.db #0x00	; 0
	.db #0x00	; 0
	.db #0xfc	; 252
	.db #0xfc	; 252
	.db #0xc0	; 192
	.db #0xc0	; 192
	.db #0xf8	; 248
	.db #0xf8	; 248
	.db #0xc0	; 192
	.db #0xc0	; 192
	.db #0xc0	; 192
	.db #0xc0	; 192
	.db #0xfc	; 252
	.db #0xfc	; 252
	.db #0x00	; 0
	.db #0x00	; 0
	.db #0x00	; 0
	.db #0x00	; 0
	.db #0xfc	; 252
	.db #0xfc	; 252
	.db #0xc0	; 192
	.db #0xc0	; 192
	.db #0xc0	; 192
	.db #0xc0	; 192
	.db #0xf8	; 248
	.db #0xf8	; 248
	.db #0xc0	; 192
	.db #0xc0	; 192
	.db #0xc0	; 192
	.db #0xc0	; 192
	.db #0x00	; 0
	.db #0x00	; 0
	.db #0x00	; 0
	.db #0x00	; 0
	.db #0x78	; 120	'x'
	.db #0x78	; 120	'x'
	.db #0xcc	; 204
	.db #0xcc	; 204
	.db #0xc0	; 192
	.db #0xc0	; 192
	.db #0xdc	; 220
	.db #0xdc	; 220
	.db #0xcc	; 204
	.db #0xcc	; 204
	.db #0x7c	; 124
	.db #0x7c	; 124
	.db #0x00	; 0
	.db #0x00	; 0
	.db #0x00	; 0
	.db #0x00	; 0
	.db #0x8c	; 140
	.db #0x8c	; 140
	.db #0x8c	; 140
	.db #0x8c	; 140
	.db #0xfc	; 252
	.db #0xfc	; 252
	.db #0x8c	; 140
	.db #0x8c	; 140
	.db #0x8c	; 140
	.db #0x8c	; 140
	.db #0x8c	; 140
	.db #0x8c	; 140
	.db #0x00	; 0
	.db #0x00	; 0
	.db #0x00	; 0
	.db #0x00	; 0
	.db #0x78	; 120	'x'
	.db #0x78	; 120	'x'
	.db #0x30	; 48	'0'
	.db #0x30	; 48	'0'
	.db #0x30	; 48	'0'
	.db #0x30	; 48	'0'
	.db #0x30	; 48	'0'
	.db #0x30	; 48	'0'
	.db #0x30	; 48	'0'
	.db #0x30	; 48	'0'
	.db #0x78	; 120	'x'
	.db #0x78	; 120	'x'
	.db #0x00	; 0
	.db #0x00	; 0
	.db #0x00	; 0
	.db #0x00	; 0
	.db #0x3c	; 60
	.db #0x3c	; 60
	.db #0x18	; 24
	.db #0x18	; 24
	.db #0x18	; 24
	.db #0x18	; 24
	.db #0xd8	; 216
	.db #0xd8	; 216
	.db #0xd8	; 216
	.db #0xd8	; 216
	.db #0x70	; 112	'p'
	.db #0x70	; 112	'p'
	.db #0x00	; 0
	.db #0x00	; 0
	.db #0x00	; 0
	.db #0x00	; 0
	.db #0xcc	; 204
	.db #0xcc	; 204
	.db #0xd8	; 216
	.db #0xd8	; 216
	.db #0xf0	; 240
	.db #0xf0	; 240
	.db #0xf0	; 240
	.db #0xf0	; 240
	.db #0xd8	; 216
	.db #0xd8	; 216
	.db #0xcc	; 204
	.db #0xcc	; 204
	.db #0x00	; 0
	.db #0x00	; 0
	.db #0x00	; 0
	.db #0x00	; 0
	.db #0xc0	; 192
	.db #0xc0	; 192
	.db #0xc0	; 192
	.db #0xc0	; 192
	.db #0xc0	; 192
	.db #0xc0	; 192
	.db #0xc0	; 192
	.db #0xc0	; 192
	.db #0xc0	; 192
	.db #0xc0	; 192
	.db #0xfc	; 252
	.db #0xfc	; 252
	.db #0x00	; 0
	.db #0x00	; 0
	.db #0x00	; 0
	.db #0x00	; 0
	.db #0x8c	; 140
	.db #0x8c	; 140
	.db #0xdc	; 220
	.db #0xdc	; 220
	.db #0xfc	; 252
	.db #0xfc	; 252
	.db #0xac	; 172
	.db #0xac	; 172
	.db #0x8c	; 140
	.db #0x8c	; 140
	.db #0x8c	; 140
	.db #0x8c	; 140
	.db #0x00	; 0
	.db #0x00	; 0
	.db #0x00	; 0
	.db #0x00	; 0
	.db #0x8c	; 140
	.db #0x8c	; 140
	.db #0xcc	; 204
	.db #0xcc	; 204
	.db #0xec	; 236
	.db #0xec	; 236
	.db #0xbc	; 188
	.db #0xbc	; 188
	.db #0x9c	; 156
	.db #0x9c	; 156
	.db #0x8c	; 140
	.db #0x8c	; 140
	.db #0x00	; 0
	.db #0x00	; 0
	.db #0x00	; 0
	.db #0x00	; 0
	.db #0x78	; 120	'x'
	.db #0x78	; 120	'x'
	.db #0xcc	; 204
	.db #0xcc	; 204
	.db #0xcc	; 204
	.db #0xcc	; 204
	.db #0xcc	; 204
	.db #0xcc	; 204
	.db #0xcc	; 204
	.db #0xcc	; 204
	.db #0x78	; 120	'x'
	.db #0x78	; 120	'x'
	.db #0x00	; 0
	.db #0x00	; 0
	.db #0x00	; 0
	.db #0x00	; 0
	.db #0xf8	; 248
	.db #0xf8	; 248
	.db #0xcc	; 204
	.db #0xcc	; 204
	.db #0xcc	; 204
	.db #0xcc	; 204
	.db #0xf8	; 248
	.db #0xf8	; 248
	.db #0xc0	; 192
	.db #0xc0	; 192
	.db #0xc0	; 192
	.db #0xc0	; 192
	.db #0x00	; 0
	.db #0x00	; 0
	.db #0x00	; 0
	.db #0x00	; 0
	.db #0x78	; 120	'x'
	.db #0x78	; 120	'x'
	.db #0xc4	; 196
	.db #0xc4	; 196
	.db #0xc4	; 196
	.db #0xc4	; 196
	.db #0xd4	; 212
	.db #0xd4	; 212
	.db #0xc8	; 200
	.db #0xc8	; 200
	.db #0x74	; 116	't'
	.db #0x74	; 116	't'
	.db #0x00	; 0
	.db #0x00	; 0
	.db #0x00	; 0
	.db #0x00	; 0
	.db #0xf8	; 248
	.db #0xf8	; 248
	.db #0xcc	; 204
	.db #0xcc	; 204
	.db #0xcc	; 204
	.db #0xcc	; 204
	.db #0xf8	; 248
	.db #0xf8	; 248
	.db #0xd0	; 208
	.db #0xd0	; 208
	.db #0xcc	; 204
	.db #0xcc	; 204
	.db #0x00	; 0
	.db #0x00	; 0
	.db #0x00	; 0
	.db #0x00	; 0
	.db #0x78	; 120	'x'
	.db #0x78	; 120	'x'
	.db #0xc0	; 192
	.db #0xc0	; 192
	.db #0x78	; 120	'x'
	.db #0x78	; 120	'x'
	.db #0x1c	; 28
	.db #0x1c	; 28
	.db #0x9c	; 156
	.db #0x9c	; 156
	.db #0x78	; 120	'x'
	.db #0x78	; 120	'x'
	.db #0x00	; 0
	.db #0x00	; 0
	.db #0x00	; 0
	.db #0x00	; 0
	.db #0xfc	; 252
	.db #0xfc	; 252
	.db #0x30	; 48	'0'
	.db #0x30	; 48	'0'
	.db #0x30	; 48	'0'
	.db #0x30	; 48	'0'
	.db #0x30	; 48	'0'
	.db #0x30	; 48	'0'
	.db #0x30	; 48	'0'
	.db #0x30	; 48	'0'
	.db #0x30	; 48	'0'
	.db #0x30	; 48	'0'
	.db #0x00	; 0
	.db #0x00	; 0
	.db #0x00	; 0
	.db #0x00	; 0
	.db #0x8c	; 140
	.db #0x8c	; 140
	.db #0x8c	; 140
	.db #0x8c	; 140
	.db #0x8c	; 140
	.db #0x8c	; 140
	.db #0x8c	; 140
	.db #0x8c	; 140
	.db #0x9c	; 156
	.db #0x9c	; 156
	.db #0x78	; 120	'x'
	.db #0x78	; 120	'x'
	.db #0x00	; 0
	.db #0x00	; 0
	.db #0x00	; 0
	.db #0x00	; 0
	.db #0x8c	; 140
	.db #0x8c	; 140
	.db #0x8c	; 140
	.db #0x8c	; 140
	.db #0x8c	; 140
	.db #0x8c	; 140
	.db #0x8c	; 140
	.db #0x8c	; 140
	.db #0x58	; 88	'X'
	.db #0x58	; 88	'X'
	.db #0x30	; 48	'0'
	.db #0x30	; 48	'0'
	.db #0x00	; 0
	.db #0x00	; 0
	.db #0x00	; 0
	.db #0x00	; 0
	.db #0x8c	; 140
	.db #0x8c	; 140
	.db #0x8c	; 140
	.db #0x8c	; 140
	.db #0xac	; 172
	.db #0xac	; 172
	.db #0xfc	; 252
	.db #0xfc	; 252
	.db #0xdc	; 220
	.db #0xdc	; 220
	.db #0x8c	; 140
	.db #0x8c	; 140
	.db #0x00	; 0
	.db #0x00	; 0
	.db #0x00	; 0
	.db #0x00	; 0
	.db #0x8c	; 140
	.db #0x8c	; 140
	.db #0x58	; 88	'X'
	.db #0x58	; 88	'X'
	.db #0x30	; 48	'0'
	.db #0x30	; 48	'0'
	.db #0x30	; 48	'0'
	.db #0x30	; 48	'0'
	.db #0x68	; 104	'h'
	.db #0x68	; 104	'h'
	.db #0xc4	; 196
	.db #0xc4	; 196
	.db #0x00	; 0
	.db #0x00	; 0
	.db #0x00	; 0
	.db #0x00	; 0
	.db #0xcc	; 204
	.db #0xcc	; 204
	.db #0xcc	; 204
	.db #0xcc	; 204
	.db #0x78	; 120	'x'
	.db #0x78	; 120	'x'
	.db #0x30	; 48	'0'
	.db #0x30	; 48	'0'
	.db #0x30	; 48	'0'
	.db #0x30	; 48	'0'
	.db #0x30	; 48	'0'
	.db #0x30	; 48	'0'
	.db #0x00	; 0
	.db #0x00	; 0
	.db #0x00	; 0
	.db #0x00	; 0
	.db #0xfc	; 252
	.db #0xfc	; 252
	.db #0x1c	; 28
	.db #0x1c	; 28
	.db #0x38	; 56	'8'
	.db #0x38	; 56	'8'
	.db #0x70	; 112	'p'
	.db #0x70	; 112	'p'
	.db #0xe0	; 224
	.db #0xe0	; 224
	.db #0xfc	; 252
	.db #0xfc	; 252
	.db #0x00	; 0
	.db #0x00	; 0
	.db #0x00	; 0
	.db #0x00	; 0
	.db #0x00	; 0
	.db #0x00	; 0
	.db #0x30	; 48	'0'
	.db #0x30	; 48	'0'
	.db #0x78	; 120	'x'
	.db #0x78	; 120	'x'
	.db #0x78	; 120	'x'
	.db #0x78	; 120	'x'
	.db #0x30	; 48	'0'
	.db #0x30	; 48	'0'
	.db #0x00	; 0
	.db #0x00	; 0
	.db #0x00	; 0
	.db #0x00	; 0
	.db #0x00	; 0
	.db #0x00	; 0
	.db #0x08	; 8
	.db #0x08	; 8
	.db #0x48	; 72	'H'
	.db #0x48	; 72	'H'
	.db #0x10	; 16
	.db #0x10	; 16
	.db #0x20	; 32
	.db #0x20	; 32
	.db #0x48	; 72	'H'
	.db #0x48	; 72	'H'
	.db #0x40	; 64
	.db #0x40	; 64
	.db #0x00	; 0
	.db #0x00	; 0
	.db #0x00	; 0
	.db #0x00	; 0
	.db #0xc0	; 192
	.db #0xc0	; 192
	.db #0xc0	; 192
	.db #0xc0	; 192
	.db #0x00	; 0
	.db #0x00	; 0
	.db #0x00	; 0
	.db #0x00	; 0
	.db #0xc0	; 192
	.db #0xc0	; 192
	.db #0xc0	; 192
	.db #0xc0	; 192
	.db #0x00	; 0
	.db #0x00	; 0
	.db #0x20	; 32
	.db #0x20	; 32
	.db #0x20	; 32
	.db #0x20	; 32
	.db #0x20	; 32
	.db #0x20	; 32
	.db #0x20	; 32
	.db #0x20	; 32
	.db #0x20	; 32
	.db #0x20	; 32
	.db #0x20	; 32
	.db #0x20	; 32
	.db #0x20	; 32
	.db #0x20	; 32
	.db #0x20	; 32
	.db #0x20	; 32
	.db #0x04	; 4
	.db #0x04	; 4
	.db #0x04	; 4
	.db #0x04	; 4
	.db #0x04	; 4
	.db #0x04	; 4
	.db #0x04	; 4
	.db #0x04	; 4
	.db #0x04	; 4
	.db #0x04	; 4
	.db #0x04	; 4
	.db #0x04	; 4
	.db #0x04	; 4
	.db #0x04	; 4
	.db #0x04	; 4
	.db #0x04	; 4
	.db #0x00	; 0
	.db #0x00	; 0
	.db #0x00	; 0
	.db #0x00	; 0
	.db #0xff	; 255
	.db #0xff	; 255
	.db #0x00	; 0
	.db #0x00	; 0
	.db #0x00	; 0
	.db #0x00	; 0
	.db #0x00	; 0
	.db #0x00	; 0
	.db #0x00	; 0
	.db #0x00	; 0
	.db #0x00	; 0
	.db #0x00	; 0
	.db #0x00	; 0
	.db #0x00	; 0
	.db #0x00	; 0
	.db #0x00	; 0
	.db #0x00	; 0
	.db #0x00	; 0
	.db #0x00	; 0
	.db #0x00	; 0
	.db #0x00	; 0
	.db #0x00	; 0
	.db #0xff	; 255
	.db #0xff	; 255
	.db #0x00	; 0
	.db #0x00	; 0
	.db #0x00	; 0
	.db #0x00	; 0
	.db #0x00	; 0
	.db #0x00	; 0
	.db #0x04	; 4
	.db #0x06	; 6
	.db #0xf2	; 242
	.db #0xf6	; 246
	.db #0x08	; 8
	.db #0x08	; 8
	.db #0x04	; 4
	.db #0x04	; 4
	.db #0x04	; 4
	.db #0x04	; 4
	.db #0x04	; 4
	.db #0x04	; 4
	.db #0x04	; 4
	.db #0x04	; 4
	.db #0x00	; 0
	.db #0x00	; 0
	.db #0x20	; 32
	.db #0x60	; 96
	.db #0x4f	; 79	'O'
	.db #0x6f	; 111	'o'
	.db #0x10	; 16
	.db #0x10	; 16
	.db #0x20	; 32
	.db #0x20	; 32
	.db #0x20	; 32
	.db #0x20	; 32
	.db #0x20	; 32
	.db #0x20	; 32
	.db #0x20	; 32
	.db #0x20	; 32
	.db #0x04	; 4
	.db #0x04	; 4
	.db #0x04	; 4
	.db #0x04	; 4
	.db #0x04	; 4
	.db #0x04	; 4
	.db #0x04	; 4
	.db #0x04	; 4
	.db #0x08	; 8
	.db #0x08	; 8
	.db #0xf2	; 242
	.db #0xf6	; 246
	.db #0x04	; 4
	.db #0x06	; 6
	.db #0x00	; 0
	.db #0x00	; 0
	.db #0x20	; 32
	.db #0x20	; 32
	.db #0x20	; 32
	.db #0x20	; 32
	.db #0x20	; 32
	.db #0x20	; 32
	.db #0x20	; 32
	.db #0x20	; 32
	.db #0x10	; 16
	.db #0x10	; 16
	.db #0x4f	; 79	'O'
	.db #0x6f	; 111	'o'
	.db #0x20	; 32
	.db #0x60	; 96
	.db #0x00	; 0
	.db #0x00	; 0
	.db #0xff	; 255
	.db #0xff	; 255
	.db #0xff	; 255
	.db #0xff	; 255
	.db #0x00	; 0
	.db #0xff	; 255
	.db #0xff	; 255
	.db #0x00	; 0
	.db #0x00	; 0
	.db #0x00	; 0
	.db #0x00	; 0
	.db #0x00	; 0
	.db #0x00	; 0
	.db #0x00	; 0
	.db #0x00	; 0
	.db #0x00	; 0
	.db #0x00	; 0
	.db #0x03	; 3
	.db #0x00	; 0
	.db #0xff	; 255
	.db #0x00	; 0
	.db #0xff	; 255
	.db #0x00	; 0
	.db #0xff	; 255
	.db #0x00	; 0
	.db #0xff	; 255
	.db #0x1f	; 31
	.db #0xe0	; 224
	.db #0x47	; 71	'G'
	.db #0xb8	; 184
	.db #0xff	; 255
	.db #0x00	; 0
	.db #0x00	; 0
	.db #0xff	; 255
	.db #0x00	; 0
	.db #0xff	; 255
	.db #0x00	; 0
	.db #0xff	; 255
	.db #0x00	; 0
	.db #0xff	; 255
	.db #0x00	; 0
	.db #0xff	; 255
	.db #0xf8	; 248
	.db #0x07	; 7
	.db #0xfe	; 254
	.db #0x01	; 1
	.db #0xff	; 255
	.db #0x00	; 0
	.db #0x00	; 0
	.db #0x00	; 0
	.db #0x00	; 0
	.db #0x0f	; 15
	.db #0x00	; 0
	.db #0xff	; 255
	.db #0x00	; 0
	.db #0xff	; 255
	.db #0x00	; 0
	.db #0xff	; 255
	.db #0x00	; 0
	.db #0xff	; 255
	.db #0x04	; 4
	.db #0xfb	; 251
	.db #0x26	; 38
	.db #0xd9	; 217
	.db #0x00	; 0
	.db #0x00	; 0
	.db #0x00	; 0
	.db #0x00	; 0
	.db #0x00	; 0
	.db #0x00	; 0
	.db #0x00	; 0
	.db #0x0f	; 15
	.db #0x00	; 0
	.db #0xff	; 255
	.db #0x00	; 0
	.db #0xff	; 255
	.db #0x00	; 0
	.db #0xff	; 255
	.db #0x00	; 0
	.db #0xff	; 255
	.db #0x00	; 0
	.db #0x00	; 0
	.db #0x00	; 0
	.db #0x00	; 0
	.db #0x00	; 0
	.db #0x00	; 0
	.db #0x00	; 0
	.db #0x00	; 0
	.db #0x00	; 0
	.db #0x00	; 0
	.db #0x00	; 0
	.db #0x0f	; 15
	.db #0x00	; 0
	.db #0xff	; 255
	.db #0x00	; 0
	.db #0xff	; 255
	.db #0x00	; 0
	.db #0x7f	; 127
	.db #0x1c	; 28
	.db #0xe3	; 227
	.db #0x07	; 7
	.db #0xf8	; 248
	.db #0x5f	; 95
	.db #0xa0	; 160
	.db #0x3f	; 63
	.db #0xc0	; 192
	.db #0xff	; 255
	.db #0x00	; 0
	.db #0xff	; 255
	.db #0x00	; 0
	.db #0xff	; 255
	.db #0x00	; 0
	.db #0x00	; 0
	.db #0x00	; 0
	.db #0x00	; 0
	.db #0x03	; 3
	.db #0x00	; 0
	.db #0x1f	; 31
	.db #0x00	; 0
	.db #0xff	; 255
	.db #0x00	; 0
	.db #0xff	; 255
	.db #0x00	; 0
	.db #0xff	; 255
	.db #0x03	; 3
	.db #0xfc	; 252
	.db #0x3f	; 63
	.db #0xc0	; 192
	.db #0x00	; 0
	.db #0x00	; 0
	.db #0x00	; 0
	.db #0x00	; 0
	.db #0x00	; 0
	.db #0x00	; 0
	.db #0x00	; 0
	.db #0x00	; 0
	.db #0x00	; 0
	.db #0x07	; 7
	.db #0x00	; 0
	.db #0x3f	; 63
	.db #0x00	; 0
	.db #0xff	; 255
	.db #0x00	; 0
	.db #0xff	; 255
	.db #0x00	; 0
	.db #0x00	; 0
	.db #0x00	; 0
	.db #0x00	; 0
	.db #0x00	; 0
	.db #0x00	; 0
	.db #0x00	; 0
	.db #0x00	; 0
	.db #0x00	; 0
	.db #0x00	; 0
	.db #0x00	; 0
	.db #0x00	; 0
	.db #0x00	; 0
	.db #0x00	; 0
	.db #0x00	; 0
	.db #0x03	; 3
	.db #0x00	; 0
	.db #0x0f	; 15
	.db #0x00	; 0
	.db #0x3f	; 63
	.db #0x00	; 0
	.db #0xff	; 255
	.db #0x00	; 0
	.db #0xff	; 255
	.db #0x01	; 1
	.db #0xfe	; 254
	.db #0x07	; 7
	.db #0xf8	; 248
	.db #0x00	; 0
	.db #0xff	; 255
	.db #0x00	; 0
	.db #0xff	; 255
	.db #0x00	; 0
	.db #0x00	; 0
	.db #0x00	; 0
	.db #0x00	; 0
	.db #0x00	; 0
	.db #0x00	; 0
	.db #0x00	; 0
	.db #0x03	; 3
	.db #0x00	; 0
	.db #0x07	; 7
	.db #0x00	; 0
	.db #0x1f	; 31
	.db #0x00	; 0
	.db #0x3f	; 63
	.db #0x00	; 0
	.db #0x7f	; 127
	.db #0x00	; 0
	.db #0xc0	; 192
	.db #0x00	; 0
	.db #0xff	; 255
	.db #0x00	; 0
	.db #0xff	; 255
	.db #0x00	; 0
	.db #0xff	; 255
	.db #0x00	; 0
	.db #0xff	; 255
	.db #0x00	; 0
	.db #0xff	; 255
	.db #0x00	; 0
	.db #0xff	; 255
	.db #0x00	; 0
	.db #0xff	; 255
	.db #0x00	; 0
	.db #0xff	; 255
	.db #0x00	; 0
	.db #0xff	; 255
	.db #0x00	; 0
	.db #0xff	; 255
	.db #0x00	; 0
	.db #0xff	; 255
	.db #0x00	; 0
	.db #0xff	; 255
	.db #0x00	; 0
	.db #0xff	; 255
	.db #0x00	; 0
	.db #0xff	; 255
	.db #0x00	; 0
	.db #0xff	; 255
	.db #0x00	; 0
	.db #0x00	; 0
	.db #0x00	; 0
	.db #0xf0	; 240
	.db #0x00	; 0
	.db #0xff	; 255
	.db #0x00	; 0
	.db #0xff	; 255
	.db #0x00	; 0
	.db #0xff	; 255
	.db #0x00	; 0
	.db #0xff	; 255
	.db #0x00	; 0
	.db #0xff	; 255
	.db #0x00	; 0
	.db #0xff	; 255
	.db #0x00	; 0
	.db #0x00	; 0
	.db #0x00	; 0
	.db #0x00	; 0
	.db #0x00	; 0
	.db #0x00	; 0
	.db #0x00	; 0
	.db #0xf0	; 240
	.db #0x00	; 0
	.db #0xff	; 255
	.db #0x00	; 0
	.db #0xff	; 255
	.db #0x00	; 0
	.db #0xff	; 255
	.db #0x00	; 0
	.db #0xff	; 255
	.db #0x00	; 0
	.db #0x00	; 0
	.db #0x00	; 0
	.db #0x00	; 0
	.db #0x00	; 0
	.db #0x00	; 0
	.db #0x00	; 0
	.db #0x00	; 0
	.db #0x00	; 0
	.db #0x00	; 0
	.db #0x00	; 0
	.db #0xf0	; 240
	.db #0x00	; 0
	.db #0xff	; 255
	.db #0x00	; 0
	.db #0xff	; 255
	.db #0x00	; 0
	.db #0x00	; 0
	.db #0x00	; 0
	.db #0x00	; 0
	.db #0x00	; 0
	.db #0x00	; 0
	.db #0x00	; 0
	.db #0x00	; 0
	.db #0x00	; 0
	.db #0x00	; 0
	.db #0x00	; 0
	.db #0x00	; 0
	.db #0x00	; 0
	.db #0x00	; 0
	.db #0x00	; 0
	.db #0xf0	; 240
	.db #0x00	; 0
	.db #0xfe	; 254
	.db #0x00	; 0
	.db #0xff	; 255
	.db #0x40	; 64
	.db #0xbf	; 191
	.db #0x10	; 16
	.db #0xef	; 239
	.db #0x18	; 24
	.db #0xe7	; 231
	.db #0x08	; 8
	.db #0xf7	; 247
	.db #0x18	; 24
	.db #0xe7	; 231
	.db #0x3e	; 62
	.db #0xc1	; 193
	.db #0x00	; 0
	.db #0x00	; 0
	.db #0x00	; 0
	.db #0xc0	; 192
	.db #0x00	; 0
	.db #0xf8	; 248
	.db #0x00	; 0
	.db #0xff	; 255
	.db #0x00	; 0
	.db #0xff	; 255
	.db #0x00	; 0
	.db #0xff	; 255
	.db #0x00	; 0
	.db #0xff	; 255
	.db #0x00	; 0
	.db #0xff	; 255
	.db #0x00	; 0
	.db #0x00	; 0
	.db #0x00	; 0
	.db #0x00	; 0
	.db #0x00	; 0
	.db #0x00	; 0
	.db #0x00	; 0
	.db #0x00	; 0
	.db #0x00	; 0
	.db #0xe0	; 224
	.db #0x00	; 0
	.db #0xfc	; 252
	.db #0x00	; 0
	.db #0xff	; 255
	.db #0x00	; 0
	.db #0xff	; 255
	.db #0x00	; 0
	.db #0x00	; 0
	.db #0x00	; 0
	.db #0x00	; 0
	.db #0x00	; 0
	.db #0x00	; 0
	.db #0x00	; 0
	.db #0x00	; 0
	.db #0x00	; 0
	.db #0x00	; 0
	.db #0x00	; 0
	.db #0x00	; 0
	.db #0x00	; 0
	.db #0x00	; 0
	.db #0x00	; 0
	.db #0xc0	; 192
	.db #0x00	; 0
	.db #0xf0	; 240
	.db #0x00	; 0
	.db #0xfc	; 252
	.db #0x00	; 0
	.db #0xff	; 255
	.db #0x00	; 0
	.db #0xff	; 255
	.db #0x00	; 0
	.db #0xff	; 255
	.db #0x00	; 0
	.db #0xff	; 255
	.db #0x00	; 0
	.db #0xff	; 255
	.db #0x00	; 0
	.db #0xff	; 255
	.db #0x00	; 0
	.db #0x00	; 0
	.db #0x00	; 0
	.db #0x00	; 0
	.db #0x00	; 0
	.db #0x00	; 0
	.db #0x00	; 0
	.db #0xc0	; 192
	.db #0x00	; 0
	.db #0xe0	; 224
	.db #0x00	; 0
	.db #0xf8	; 248
	.db #0x00	; 0
	.db #0xfc	; 252
	.db #0x00	; 0
	.db #0xfe	; 254
	.db #0x01	; 1
	.db #0xfe	; 254
	.db #0xcf	; 207
	.db #0x30	; 48	'0'
	.db #0xff	; 255
	.db #0x00	; 0
	.db #0xff	; 255
	.db #0x00	; 0
	.db #0xff	; 255
	.db #0x00	; 0
	.db #0xff	; 255
	.db #0x00	; 0
	.db #0xff	; 255
	.db #0x00	; 0
	.db #0xff	; 255
	.db #0x00	; 0
	.db #0xc0	; 192
	.db #0x3f	; 63
	.db #0xf4	; 244
	.db #0x0b	; 11
	.db #0xfc	; 252
	.db #0x03	; 3
	.db #0xff	; 255
	.db #0x00	; 0
	.db #0xff	; 255
	.db #0x00	; 0
	.db #0xff	; 255
	.db #0x00	; 0
	.db #0xff	; 255
	.db #0x00	; 0
	.db #0xff	; 255
	.db #0x00	; 0
	.db #0x13	; 19
	.db #0xec	; 236
	.db #0x3f	; 63
	.db #0xc0	; 192
	.db #0x7f	; 127
	.db #0x80	; 128
	.db #0xff	; 255
	.db #0x00	; 0
	.db #0xfe	; 254
	.db #0x01	; 1
	.db #0xf8	; 248
	.db #0x07	; 7
	.db #0xe4	; 228
	.db #0x1b	; 27
	.db #0x80	; 128
	.db #0x7f	; 127
	.db #0xff	; 255
	.db #0x00	; 0
	.db #0xff	; 255
	.db #0x00	; 0
	.db #0xff	; 255
	.db #0x00	; 0
	.db #0xff	; 255
	.db #0x00	; 0
	.db #0x7f	; 127
	.db #0x80	; 128
	.db #0x7f	; 127
	.db #0x80	; 128
	.db #0x1f	; 31
	.db #0xe0	; 224
	.db #0x0f	; 15
	.db #0xf0	; 240
	.db #0xff	; 255
	.db #0x00	; 0
	.db #0xff	; 255
	.db #0x00	; 0
	.db #0xff	; 255
	.db #0x00	; 0
	.db #0xfe	; 254
	.db #0x01	; 1
	.db #0xfe	; 254
	.db #0x01	; 1
	.db #0xfc	; 252
	.db #0x03	; 3
	.db #0xfc	; 252
	.db #0x03	; 3
	.db #0xfc	; 252
	.db #0x03	; 3
	.db #0xc0	; 192
	.db #0x3f	; 63
	.db #0xf0	; 240
	.db #0x0f	; 15
	.db #0xd8	; 216
	.db #0x27	; 39
	.db #0x8c	; 140
	.db #0x73	; 115	's'
	.db #0x04	; 4
	.db #0xfb	; 251
	.db #0x04	; 4
	.db #0xfb	; 251
	.db #0x00	; 0
	.db #0xff	; 255
	.db #0x10	; 16
	.db #0xef	; 239
	.db #0x00	; 0
	.db #0xff	; 255
	.db #0x00	; 0
	.db #0xff	; 255
	.db #0x00	; 0
	.db #0xff	; 255
	.db #0x00	; 0
	.db #0xff	; 255
	.db #0x00	; 0
	.db #0xff	; 255
	.db #0x00	; 0
	.db #0xff	; 255
	.db #0x00	; 0
	.db #0xff	; 255
	.db #0x00	; 0
	.db #0xff	; 255
	.db #0x00	; 0
	.db #0xff	; 255
	.db #0x00	; 0
	.db #0xff	; 255
	.db #0x26	; 38
	.db #0xd9	; 217
	.db #0x0f	; 15
	.db #0xf0	; 240
	.db #0x1f	; 31
	.db #0xe0	; 224
	.db #0x3f	; 63
	.db #0xc0	; 192
	.db #0x3f	; 63
	.db #0xc0	; 192
	.db #0x7f	; 127
	.db #0x80	; 128
	.db #0x00	; 0
	.db #0xff	; 255
	.db #0x00	; 0
	.db #0xff	; 255
	.db #0x02	; 2
	.db #0xfd	; 253
	.db #0x04	; 4
	.db #0xfb	; 251
	.db #0x84	; 132
	.db #0x7b	; 123
	.db #0xce	; 206
	.db #0x31	; 49	'1'
	.db #0xff	; 255
	.db #0x00	; 0
	.db #0xff	; 255
	.db #0x00	; 0
	.db #0x10	; 16
	.db #0xef	; 239
	.db #0x00	; 0
	.db #0xff	; 255
	.db #0x0c	; 12
	.db #0xf3	; 243
	.db #0x05	; 5
	.db #0xfa	; 250
	.db #0x00	; 0
	.db #0xff	; 255
	.db #0x00	; 0
	.db #0xff	; 255
	.db #0xe0	; 224
	.db #0x1f	; 31
	.db #0xfe	; 254
	.db #0x01	; 1
	.db #0x00	; 0
	.db #0xff	; 255
	.db #0x08	; 8
	.db #0xf7	; 247
	.db #0x00	; 0
	.db #0xff	; 255
	.db #0x60	; 96
	.db #0x9f	; 159
	.db #0xe0	; 224
	.db #0x1f	; 31
	.db #0xc8	; 200
	.db #0x37	; 55	'7'
	.db #0x10	; 16
	.db #0xef	; 239
	.db #0x00	; 0
	.db #0xff	; 255
	.db #0x7f	; 127
	.db #0x80	; 128
	.db #0x1f	; 31
	.db #0xe0	; 224
	.db #0x3f	; 63
	.db #0xc0	; 192
	.db #0x1f	; 31
	.db #0xe0	; 224
	.db #0x07	; 7
	.db #0xf8	; 248
	.db #0x03	; 3
	.db #0xfc	; 252
	.db #0x07	; 7
	.db #0xf8	; 248
	.db #0x1f	; 31
	.db #0xe0	; 224
	.db #0xff	; 255
	.db #0x00	; 0
	.db #0xff	; 255
	.db #0x00	; 0
	.db #0xff	; 255
	.db #0x00	; 0
	.db #0xff	; 255
	.db #0x00	; 0
	.db #0xff	; 255
	.db #0x00	; 0
	.db #0xff	; 255
	.db #0x00	; 0
	.db #0xff	; 255
	.db #0x00	; 0
	.db #0xff	; 255
	.db #0x00	; 0
	.db #0xf2	; 242
	.db #0x0d	; 13
	.db #0xff	; 255
	.db #0x00	; 0
	.db #0xff	; 255
	.db #0x00	; 0
	.db #0xff	; 255
	.db #0x00	; 0
	.db #0xff	; 255
	.db #0x00	; 0
	.db #0xff	; 255
	.db #0x00	; 0
	.db #0xff	; 255
	.db #0x00	; 0
	.db #0xff	; 255
	.db #0x00	; 0
	.db #0x0f	; 15
	.db #0xf0	; 240
	.db #0x1f	; 31
	.db #0xe0	; 224
	.db #0xff	; 255
	.db #0x00	; 0
	.db #0xff	; 255
	.db #0x00	; 0
	.db #0xff	; 255
	.db #0x00	; 0
	.db #0xff	; 255
	.db #0x00	; 0
	.db #0xff	; 255
	.db #0x00	; 0
	.db #0xff	; 255
	.db #0x00	; 0
	.db #0xf8	; 248
	.db #0x07	; 7
	.db #0xf8	; 248
	.db #0x07	; 7
	.db #0xf0	; 240
	.db #0x0f	; 15
	.db #0xe0	; 224
	.db #0x1f	; 31
	.db #0xe0	; 224
	.db #0x1f	; 31
	.db #0xf8	; 248
	.db #0x07	; 7
	.db #0xf8	; 248
	.db #0x07	; 7
	.db #0xe0	; 224
	.db #0x1f	; 31
	.db #0x00	; 0
	.db #0xff	; 255
	.db #0x00	; 0
	.db #0xff	; 255
	.db #0x00	; 0
	.db #0xff	; 255
	.db #0x00	; 0
	.db #0xff	; 255
	.db #0x00	; 0
	.db #0xff	; 255
	.db #0x00	; 0
	.db #0xff	; 255
	.db #0x00	; 0
	.db #0xff	; 255
	.db #0x00	; 0
	.db #0xff	; 255
	.db #0x00	; 0
	.db #0xff	; 255
	.db #0x00	; 0
	.db #0xff	; 255
	.db #0x00	; 0
	.db #0xff	; 255
	.db #0x04	; 4
	.db #0xfb	; 251
	.db #0x03	; 3
	.db #0xfc	; 252
	.db #0x01	; 1
	.db #0xfe	; 254
	.db #0x07	; 7
	.db #0xf8	; 248
	.db #0x0f	; 15
	.db #0xf0	; 240
	.db #0x7f	; 127
	.db #0x80	; 128
	.db #0x7f	; 127
	.db #0x80	; 128
	.db #0x7f	; 127
	.db #0x80	; 128
	.db #0xff	; 255
	.db #0x00	; 0
	.db #0xff	; 255
	.db #0x00	; 0
	.db #0xff	; 255
	.db #0x00	; 0
	.db #0xff	; 255
	.db #0x00	; 0
	.db #0xff	; 255
	.db #0x00	; 0
	.db #0xff	; 255
	.db #0x00	; 0
	.db #0xcf	; 207
	.db #0x30	; 48	'0'
	.db #0x8f	; 143
	.db #0x70	; 112	'p'
	.db #0xd3	; 211
	.db #0x2c	; 44
	.db #0xfd	; 253
	.db #0x02	; 2
	.db #0xfd	; 253
	.db #0x02	; 2
	.db #0xfe	; 254
	.db #0x01	; 1
	.db #0xff	; 255
	.db #0x00	; 0
	.db #0xff	; 255
	.db #0x00	; 0
	.db #0xff	; 255
	.db #0x00	; 0
	.db #0xff	; 255
	.db #0x00	; 0
	.db #0xff	; 255
	.db #0x00	; 0
	.db #0xf3	; 243
	.db #0x0c	; 12
	.db #0xed	; 237
	.db #0x12	; 18
	.db #0x1e	; 30
	.db #0xe1	; 225
	.db #0xff	; 255
	.db #0x00	; 0
	.db #0x1e	; 30
	.db #0xe1	; 225
	.db #0xde	; 222
	.db #0x21	; 33
	.db #0xff	; 255
	.db #0x00	; 0
	.db #0xff	; 255
	.db #0x00	; 0
	.db #0xff	; 255
	.db #0x00	; 0
	.db #0xff	; 255
	.db #0x00	; 0
	.db #0xff	; 255
	.db #0x00	; 0
	.db #0x7f	; 127
	.db #0x80	; 128
	.db #0x00	; 0
	.db #0xff	; 255
	.db #0x00	; 0
	.db #0xff	; 255
	.db #0x80	; 128
	.db #0x7f	; 127
	.db #0x88	; 136
	.db #0x77	; 119	'w'
	.db #0xcc	; 204
	.db #0x33	; 51	'3'
	.db #0xe6	; 230
	.db #0x19	; 25
	.db #0xff	; 255
	.db #0x00	; 0
	.db #0xff	; 255
	.db #0x00	; 0
	.db #0x00	; 0
	.db #0xff	; 255
	.db #0x00	; 0
	.db #0xff	; 255
	.db #0x00	; 0
	.db #0xff	; 255
	.db #0x00	; 0
	.db #0xff	; 255
	.db #0x08	; 8
	.db #0xf7	; 247
	.db #0x90	; 144
	.db #0x6f	; 111	'o'
	.db #0xf8	; 248
	.db #0x07	; 7
	.db #0xfe	; 254
	.db #0x01	; 1
	.db #0x18	; 24
	.db #0x00	; 0
	.db #0x00	; 0
	.db #0x18	; 24
	.db #0x42	; 66	'B'
	.db #0x18	; 24
	.db #0x18	; 24
	.db #0x5a	; 90	'Z'
	.db #0x99	; 153
	.db #0x42	; 66	'B'
	.db #0xe7	; 231
	.db #0xbd	; 189
	.db #0x66	; 102	'f'
	.db #0x5a	; 90	'Z'
	.db #0x18	; 24
	.db #0x18	; 24
	.db #0x00	; 0
	.db #0x00	; 0
	.db #0x3c	; 60
	.db #0x3c	; 60
	.db #0x46	; 70	'F'
	.db #0x7a	; 122	'z'
	.db #0x5e	; 94
	.db #0x62	; 98	'b'
	.db #0x6a	; 106	'j'
	.db #0x56	; 86	'V'
	.db #0x42	; 66	'B'
	.db #0x7e	; 126
	.db #0x3c	; 60
	.db #0x3c	; 60
	.db #0x00	; 0
	.db #0x00	; 0
_menu_screen:
	.db #0x00	; 0
	.db #0x00	; 0
	.db #0x00	; 0
	.db #0x00	; 0
	.db #0x00	; 0
	.db #0x00	; 0
	.db #0x00	; 0
	.db #0x00	; 0
	.db #0x00	; 0
	.db #0x00	; 0
	.db #0x00	; 0
	.db #0x00	; 0
	.db #0x00	; 0
	.db #0x00	; 0
	.db #0x00	; 0
	.db #0x00	; 0
	.db #0x00	; 0
	.db #0x00	; 0
	.db #0x00	; 0
	.db #0x00	; 0
	.db #0x00	; 0
	.db #0x2d	; 45
	.db #0x2a	; 42
	.db #0x2a	; 42
	.db #0x2a	; 42
	.db #0x2a	; 42
	.db #0x2a	; 42
	.db #0x2a	; 42
	.db #0x2a	; 42
	.db #0x2a	; 42
	.db #0x2a	; 42
	.db #0x2a	; 42
	.db #0x2a	; 42
	.db #0x2a	; 42
	.db #0x2a	; 42
	.db #0x2a	; 42
	.db #0x2a	; 42
	.db #0x2a	; 42
	.db #0x2c	; 44
	.db #0x00	; 0
	.db #0x00	; 0
	.db #0x28	; 40
	.db #0x00	; 0
	.db #0x00	; 0
	.db #0x17	; 23
	.db #0x0f	; 15
	.db #0x18	; 24
	.db #0x1f	; 31
	.db #0x00	; 0
	.db #0x00	; 0
	.db #0x1d	; 29
	.db #0x0f	; 15
	.db #0x16	; 22
	.db #0x0f	; 15
	.db #0x0d	; 13
	.db #0x1e	; 30
	.db #0x00	; 0
	.db #0x00	; 0
	.db #0x29	; 41
	.db #0x00	; 0
	.db #0x00	; 0
	.db #0x28	; 40
	.db #0x00	; 0
	.db #0x00	; 0
	.db #0x00	; 0
	.db #0x00	; 0
	.db #0x00	; 0
	.db #0x00	; 0
	.db #0x00	; 0
	.db #0x00	; 0
	.db #0x00	; 0
	.db #0x00	; 0
	.db #0x00	; 0
	.db #0x00	; 0
	.db #0x00	; 0
	.db #0x00	; 0
	.db #0x00	; 0
	.db #0x00	; 0
	.db #0x29	; 41
	.db #0x00	; 0
	.db #0x00	; 0
	.db #0x28	; 40
	.db #0x00	; 0
	.db #0x00	; 0
	.db #0x00	; 0
	.db #0x00	; 0
	.db #0x27	; 39
	.db #0x1a	; 26
	.db #0x16	; 22
	.db #0x0b	; 11
	.db #0x23	; 35
	.db #0x00	; 0
	.db #0x11	; 17
	.db #0x0b	; 11
	.db #0x17	; 23
	.db #0x0f	; 15
	.db #0x00	; 0
	.db #0x00	; 0
	.db #0x29	; 41
	.db #0x00	; 0
	.db #0x00	; 0
	.db #0x28	; 40
	.db #0x00	; 0
	.db #0x00	; 0
	.db #0x00	; 0
	.db #0x00	; 0
	.db #0x00	; 0
	.db #0x00	; 0
	.db #0x00	; 0
	.db #0x00	; 0
	.db #0x00	; 0
	.db #0x00	; 0
	.db #0x00	; 0
	.db #0x00	; 0
	.db #0x00	; 0
	.db #0x00	; 0
	.db #0x00	; 0
	.db #0x00	; 0
	.db #0x29	; 41
	.db #0x00	; 0
	.db #0x00	; 0
	.db #0x28	; 40
	.db #0x00	; 0
	.db #0x00	; 0
	.db #0x00	; 0
	.db #0x00	; 0
	.db #0x27	; 39
	.db #0x1d	; 29
	.db #0x0f	; 15
	.db #0x0f	; 15
	.db #0x00	; 0
	.db #0x1d	; 29
	.db #0x1e	; 30
	.db #0x0b	; 11
	.db #0x1e	; 30
	.db #0x1d	; 29
	.db #0x00	; 0
	.db #0x00	; 0
	.db #0x29	; 41
	.db #0x00	; 0
	.db #0x00	; 0
	.db #0x28	; 40
	.db #0x00	; 0
	.db #0x00	; 0
	.db #0x00	; 0
	.db #0x00	; 0
	.db #0x00	; 0
	.db #0x00	; 0
	.db #0x00	; 0
	.db #0x00	; 0
	.db #0x00	; 0
	.db #0x00	; 0
	.db #0x00	; 0
	.db #0x00	; 0
	.db #0x00	; 0
	.db #0x00	; 0
	.db #0x00	; 0
	.db #0x00	; 0
	.db #0x29	; 41
	.db #0x00	; 0
	.db #0x00	; 0
	.db #0x28	; 40
	.db #0x00	; 0
	.db #0x00	; 0
	.db #0x00	; 0
	.db #0x00	; 0
	.db #0x00	; 0
	.db #0x00	; 0
	.db #0x00	; 0
	.db #0x00	; 0
	.db #0x00	; 0
	.db #0x00	; 0
	.db #0x00	; 0
	.db #0x00	; 0
	.db #0x00	; 0
	.db #0x00	; 0
	.db #0x00	; 0
	.db #0x00	; 0
	.db #0x29	; 41
	.db #0x00	; 0
	.db #0x00	; 0
	.db #0x2f	; 47
	.db #0x2b	; 43
	.db #0x2b	; 43
	.db #0x2b	; 43
	.db #0x2b	; 43
	.db #0x2b	; 43
	.db #0x2b	; 43
	.db #0x2b	; 43
	.db #0x2b	; 43
	.db #0x2b	; 43
	.db #0x2b	; 43
	.db #0x2b	; 43
	.db #0x2b	; 43
	.db #0x2b	; 43
	.db #0x2b	; 43
	.db #0x2b	; 43
	.db #0x2b	; 43
	.db #0x2e	; 46
	.db #0x00	; 0
	.db #0x00	; 0
	.db #0x00	; 0
	.db #0x00	; 0
	.db #0x00	; 0
	.db #0x00	; 0
	.db #0x00	; 0
	.db #0x00	; 0
	.db #0x00	; 0
	.db #0x00	; 0
	.db #0x00	; 0
	.db #0x00	; 0
	.db #0x00	; 0
	.db #0x00	; 0
	.db #0x00	; 0
	.db #0x00	; 0
	.db #0x00	; 0
	.db #0x00	; 0
	.db #0x00	; 0
	.db #0x00	; 0
	.db #0x00	; 0
	.db #0x00	; 0
	.db #0x00	; 0
	.db #0x00	; 0
	.db #0x00	; 0
	.db #0x00	; 0
	.db #0x00	; 0
	.db #0x00	; 0
	.db #0x00	; 0
	.db #0x00	; 0
	.db #0x00	; 0
	.db #0x00	; 0
	.db #0x00	; 0
	.db #0x00	; 0
	.db #0x00	; 0
	.db #0x00	; 0
	.db #0x00	; 0
	.db #0x00	; 0
	.db #0x00	; 0
	.db #0x00	; 0
	.db #0x00	; 0
	.db #0x00	; 0
	.db #0x2d	; 45
	.db #0x2a	; 42
	.db #0x2a	; 42
	.db #0x2a	; 42
	.db #0x2a	; 42
	.db #0x2a	; 42
	.db #0x2a	; 42
	.db #0x2a	; 42
	.db #0x2a	; 42
	.db #0x2a	; 42
	.db #0x2a	; 42
	.db #0x2a	; 42
	.db #0x2a	; 42
	.db #0x2a	; 42
	.db #0x2a	; 42
	.db #0x2a	; 42
	.db #0x2a	; 42
	.db #0x2c	; 44
	.db #0x00	; 0
	.db #0x00	; 0
	.db #0x28	; 40
	.db #0x00	; 0
	.db #0x00	; 0
	.db #0x00	; 0
	.db #0x00	; 0
	.db #0x00	; 0
	.db #0x00	; 0
	.db #0x00	; 0
	.db #0x00	; 0
	.db #0x00	; 0
	.db #0x00	; 0
	.db #0x00	; 0
	.db #0x00	; 0
	.db #0x00	; 0
	.db #0x00	; 0
	.db #0x00	; 0
	.db #0x00	; 0
	.db #0x29	; 41
	.db #0x00	; 0
	.db #0x00	; 0
	.db #0x28	; 40
	.db #0x00	; 0
	.db #0x1e	; 30
	.db #0x13	; 19
	.db #0x1e	; 30
	.db #0x16	; 22
	.db #0x0f	; 15
	.db #0x27	; 39
	.db #0x00	; 0
	.db #0x1a	; 26
	.db #0x1c	; 28
	.db #0x0f	; 15
	.db #0x1d	; 29
	.db #0x1d	; 29
	.db #0x00	; 0
	.db #0x0c	; 12
	.db #0x00	; 0
	.db #0x29	; 41
	.db #0x00	; 0
	.db #0x00	; 0
	.db #0x28	; 40
	.db #0x00	; 0
	.db #0x00	; 0
	.db #0x00	; 0
	.db #0x00	; 0
	.db #0x00	; 0
	.db #0x00	; 0
	.db #0x00	; 0
	.db #0x00	; 0
	.db #0x00	; 0
	.db #0x00	; 0
	.db #0x00	; 0
	.db #0x00	; 0
	.db #0x00	; 0
	.db #0x00	; 0
	.db #0x00	; 0
	.db #0x00	; 0
	.db #0x29	; 41
	.db #0x00	; 0
	.db #0x00	; 0
	.db #0x2f	; 47
	.db #0x2b	; 43
	.db #0x2b	; 43
	.db #0x2b	; 43
	.db #0x2b	; 43
	.db #0x2b	; 43
	.db #0x2b	; 43
	.db #0x2b	; 43
	.db #0x2b	; 43
	.db #0x2b	; 43
	.db #0x2b	; 43
	.db #0x2b	; 43
	.db #0x2b	; 43
	.db #0x2b	; 43
	.db #0x2b	; 43
	.db #0x2b	; 43
	.db #0x2b	; 43
	.db #0x2e	; 46
	.db #0x00	; 0
	.db #0x00	; 0
	.db #0x00	; 0
	.db #0x00	; 0
	.db #0x00	; 0
	.db #0x00	; 0
	.db #0x00	; 0
	.db #0x00	; 0
	.db #0x00	; 0
	.db #0x00	; 0
	.db #0x00	; 0
	.db #0x00	; 0
	.db #0x00	; 0
	.db #0x00	; 0
	.db #0x00	; 0
	.db #0x00	; 0
	.db #0x00	; 0
	.db #0x00	; 0
	.db #0x00	; 0
	.db #0x00	; 0
	.db #0x00	; 0
_stats_screen:
	.db #0x00	; 0
	.db #0x00	; 0
	.db #0x00	; 0
	.db #0x00	; 0
	.db #0x00	; 0
	.db #0x00	; 0
	.db #0x00	; 0
	.db #0x00	; 0
	.db #0x00	; 0
	.db #0x00	; 0
	.db #0x00	; 0
	.db #0x00	; 0
	.db #0x00	; 0
	.db #0x00	; 0
	.db #0x00	; 0
	.db #0x00	; 0
	.db #0x00	; 0
	.db #0x00	; 0
	.db #0x00	; 0
	.db #0x00	; 0
	.db #0x00	; 0
	.db #0x2d	; 45
	.db #0x2a	; 42
	.db #0x2a	; 42
	.db #0x2a	; 42
	.db #0x2a	; 42
	.db #0x2a	; 42
	.db #0x2a	; 42
	.db #0x2a	; 42
	.db #0x2a	; 42
	.db #0x2a	; 42
	.db #0x2a	; 42
	.db #0x2a	; 42
	.db #0x2a	; 42
	.db #0x2a	; 42
	.db #0x2a	; 42
	.db #0x2a	; 42
	.db #0x2a	; 42
	.db #0x2c	; 44
	.db #0x00	; 0
	.db #0x00	; 0
	.db #0x28	; 40
	.db #0x00	; 0
	.db #0x00	; 0
	.db #0x00	; 0
	.db #0x11	; 17
	.db #0x0b	; 11
	.db #0x17	; 23
	.db #0x0f	; 15
	.db #0x00	; 0
	.db #0x1d	; 29
	.db #0x1e	; 30
	.db #0x0b	; 11
	.db #0x1e	; 30
	.db #0x1d	; 29
	.db #0x00	; 0
	.db #0x00	; 0
	.db #0x00	; 0
	.db #0x29	; 41
	.db #0x00	; 0
	.db #0x00	; 0
	.db #0x28	; 40
	.db #0x00	; 0
	.db #0x00	; 0
	.db #0x00	; 0
	.db #0x00	; 0
	.db #0x00	; 0
	.db #0x00	; 0
	.db #0x00	; 0
	.db #0x00	; 0
	.db #0x00	; 0
	.db #0x00	; 0
	.db #0x00	; 0
	.db #0x00	; 0
	.db #0x00	; 0
	.db #0x00	; 0
	.db #0x00	; 0
	.db #0x00	; 0
	.db #0x29	; 41
	.db #0x00	; 0
	.db #0x00	; 0
	.db #0x28	; 40
	.db #0x00	; 0
	.db #0x00	; 0
	.db #0x00	; 0
	.db #0x00	; 0
	.db #0x00	; 0
	.db #0x00	; 0
	.db #0x00	; 0
	.db #0x00	; 0
	.db #0x00	; 0
	.db #0x00	; 0
	.db #0x00	; 0
	.db #0x00	; 0
	.db #0x00	; 0
	.db #0x00	; 0
	.db #0x00	; 0
	.db #0x00	; 0
	.db #0x29	; 41
	.db #0x00	; 0
	.db #0x00	; 0
	.db #0x28	; 40
	.db #0x00	; 0
	.db #0x00	; 0
	.db #0x00	; 0
	.db #0x12	; 18
	.db #0x13	; 19
	.db #0x11	; 17
	.db #0x12	; 18
	.db #0x00	; 0
	.db #0x1d	; 29
	.db #0x0d	; 13
	.db #0x19	; 25
	.db #0x1c	; 28
	.db #0x0f	; 15
	.db #0x00	; 0
	.db #0x00	; 0
	.db #0x00	; 0
	.db #0x29	; 41
	.db #0x00	; 0
	.db #0x00	; 0
	.db #0x28	; 40
	.db #0x00	; 0
	.db #0x00	; 0
	.db #0x00	; 0
	.db #0x25	; 37
	.db #0x01	; 1
	.db #0x01	; 1
	.db #0x01	; 1
	.db #0x01	; 1
	.db #0x01	; 1
	.db #0x00	; 0
	.db #0x1a	; 26
	.db #0x1e	; 30
	.db #0x1d	; 29
	.db #0x00	; 0
	.db #0x00	; 0
	.db #0x00	; 0
	.db #0x29	; 41
	.db #0x00	; 0
	.db #0x00	; 0
	.db #0x28	; 40
	.db #0x00	; 0
	.db #0x00	; 0
	.db #0x00	; 0
	.db #0x00	; 0
	.db #0x00	; 0
	.db #0x00	; 0
	.db #0x00	; 0
	.db #0x00	; 0
	.db #0x00	; 0
	.db #0x00	; 0
	.db #0x00	; 0
	.db #0x00	; 0
	.db #0x00	; 0
	.db #0x00	; 0
	.db #0x00	; 0
	.db #0x00	; 0
	.db #0x29	; 41
	.db #0x00	; 0
	.db #0x00	; 0
	.db #0x28	; 40
	.db #0x00	; 0
	.db #0x00	; 0
	.db #0x00	; 0
	.db #0x00	; 0
	.db #0x00	; 0
	.db #0x00	; 0
	.db #0x00	; 0
	.db #0x00	; 0
	.db #0x00	; 0
	.db #0x00	; 0
	.db #0x00	; 0
	.db #0x00	; 0
	.db #0x00	; 0
	.db #0x00	; 0
	.db #0x00	; 0
	.db #0x00	; 0
	.db #0x29	; 41
	.db #0x00	; 0
	.db #0x00	; 0
	.db #0x28	; 40
	.db #0x00	; 0
	.db #0x00	; 0
	.db #0x00	; 0
	.db #0x16	; 22
	.db #0x0b	; 11
	.db #0x1d	; 29
	.db #0x1e	; 30
	.db #0x00	; 0
	.db #0x1d	; 29
	.db #0x0d	; 13
	.db #0x19	; 25
	.db #0x1c	; 28
	.db #0x0f	; 15
	.db #0x00	; 0
	.db #0x00	; 0
	.db #0x00	; 0
	.db #0x29	; 41
	.db #0x00	; 0
	.db #0x00	; 0
	.db #0x28	; 40
	.db #0x00	; 0
	.db #0x00	; 0
	.db #0x00	; 0
	.db #0x25	; 37
	.db #0x01	; 1
	.db #0x01	; 1
	.db #0x01	; 1
	.db #0x01	; 1
	.db #0x01	; 1
	.db #0x00	; 0
	.db #0x1a	; 26
	.db #0x1e	; 30
	.db #0x1d	; 29
	.db #0x00	; 0
	.db #0x00	; 0
	.db #0x00	; 0
	.db #0x29	; 41
	.db #0x00	; 0
	.db #0x00	; 0
	.db #0x28	; 40
	.db #0x00	; 0
	.db #0x00	; 0
	.db #0x00	; 0
	.db #0x00	; 0
	.db #0x00	; 0
	.db #0x00	; 0
	.db #0x00	; 0
	.db #0x00	; 0
	.db #0x00	; 0
	.db #0x00	; 0
	.db #0x00	; 0
	.db #0x00	; 0
	.db #0x00	; 0
	.db #0x00	; 0
	.db #0x00	; 0
	.db #0x00	; 0
	.db #0x29	; 41
	.db #0x00	; 0
	.db #0x00	; 0
	.db #0x28	; 40
	.db #0x00	; 0
	.db #0x00	; 0
	.db #0x00	; 0
	.db #0x00	; 0
	.db #0x00	; 0
	.db #0x00	; 0
	.db #0x00	; 0
	.db #0x00	; 0
	.db #0x00	; 0
	.db #0x00	; 0
	.db #0x00	; 0
	.db #0x00	; 0
	.db #0x00	; 0
	.db #0x00	; 0
	.db #0x00	; 0
	.db #0x00	; 0
	.db #0x29	; 41
	.db #0x00	; 0
	.db #0x00	; 0
	.db #0x28	; 40
	.db #0x00	; 0
	.db #0x00	; 0
	.db #0x1e	; 30
	.db #0x13	; 19
	.db #0x17	; 23
	.db #0x0f	; 15
	.db #0x1d	; 29
	.db #0x00	; 0
	.db #0x1a	; 26
	.db #0x16	; 22
	.db #0x0b	; 11
	.db #0x23	; 35
	.db #0x0f	; 15
	.db #0x0e	; 14
	.db #0x00	; 0
	.db #0x00	; 0
	.db #0x29	; 41
	.db #0x00	; 0
	.db #0x00	; 0
	.db #0x28	; 40
	.db #0x00	; 0
	.db #0x00	; 0
	.db #0x00	; 0
	.db #0x25	; 37
	.db #0x01	; 1
	.db #0x01	; 1
	.db #0x01	; 1
	.db #0x00	; 0
	.db #0x1a	; 26
	.db #0x16	; 22
	.db #0x0b	; 11
	.db #0x23	; 35
	.db #0x1d	; 29
	.db #0x00	; 0
	.db #0x00	; 0
	.db #0x00	; 0
	.db #0x29	; 41
	.db #0x00	; 0
	.db #0x00	; 0
	.db #0x28	; 40
	.db #0x00	; 0
	.db #0x00	; 0
	.db #0x00	; 0
	.db #0x00	; 0
	.db #0x00	; 0
	.db #0x00	; 0
	.db #0x00	; 0
	.db #0x00	; 0
	.db #0x00	; 0
	.db #0x00	; 0
	.db #0x00	; 0
	.db #0x00	; 0
	.db #0x00	; 0
	.db #0x00	; 0
	.db #0x00	; 0
	.db #0x00	; 0
	.db #0x29	; 41
	.db #0x00	; 0
	.db #0x00	; 0
	.db #0x2f	; 47
	.db #0x2b	; 43
	.db #0x2b	; 43
	.db #0x2b	; 43
	.db #0x2b	; 43
	.db #0x2b	; 43
	.db #0x2b	; 43
	.db #0x2b	; 43
	.db #0x2b	; 43
	.db #0x2b	; 43
	.db #0x2b	; 43
	.db #0x2b	; 43
	.db #0x2b	; 43
	.db #0x2b	; 43
	.db #0x2b	; 43
	.db #0x2b	; 43
	.db #0x2b	; 43
	.db #0x2e	; 46
	.db #0x00	; 0
	.db #0x00	; 0
	.db #0x00	; 0
	.db #0x00	; 0
	.db #0x00	; 0
	.db #0x00	; 0
	.db #0x00	; 0
	.db #0x00	; 0
	.db #0x00	; 0
	.db #0x00	; 0
	.db #0x00	; 0
	.db #0x00	; 0
	.db #0x00	; 0
	.db #0x00	; 0
	.db #0x00	; 0
	.db #0x00	; 0
	.db #0x00	; 0
	.db #0x00	; 0
	.db #0x00	; 0
	.db #0x00	; 0
	.db #0x00	; 0
_game_screen:
	.db #0x00	; 0
	.db #0x00	; 0
	.db #0x00	; 0
	.db #0x00	; 0
	.db #0x00	; 0
	.db #0x00	; 0
	.db #0x00	; 0
	.db #0x00	; 0
	.db #0x00	; 0
	.db #0x00	; 0
	.db #0x00	; 0
	.db #0x00	; 0
	.db #0x00	; 0
	.db #0x00	; 0
	.db #0x00	; 0
	.db #0x00	; 0
	.db #0x00	; 0
	.db #0x00	; 0
	.db #0x00	; 0
	.db #0x00	; 0
	.db #0x00	; 0
	.db #0x00	; 0
	.db #0x00	; 0
	.db #0x00	; 0
	.db #0x00	; 0
	.db #0x00	; 0
	.db #0x00	; 0
	.db #0x00	; 0
	.db #0x00	; 0
	.db #0x00	; 0
	.db #0x00	; 0
	.db #0x00	; 0
	.db #0x00	; 0
	.db #0x00	; 0
	.db #0x00	; 0
	.db #0x00	; 0
	.db #0x00	; 0
	.db #0x00	; 0
	.db #0x00	; 0
	.db #0x00	; 0
	.db #0x00	; 0
	.db #0x00	; 0
	.db #0x00	; 0
	.db #0x00	; 0
	.db #0x00	; 0
	.db #0x00	; 0
	.db #0x00	; 0
	.db #0x00	; 0
	.db #0x00	; 0
	.db #0x00	; 0
	.db #0x00	; 0
	.db #0x00	; 0
	.db #0x00	; 0
	.db #0x00	; 0
	.db #0x00	; 0
	.db #0x00	; 0
	.db #0x00	; 0
	.db #0x00	; 0
	.db #0x00	; 0
	.db #0x00	; 0
	.db #0x00	; 0
	.db #0x00	; 0
	.db #0x00	; 0
	.db #0x00	; 0
	.db #0x00	; 0
	.db #0x00	; 0
	.db #0x00	; 0
	.db #0x00	; 0
	.db #0x00	; 0
	.db #0x00	; 0
	.db #0x00	; 0
	.db #0x00	; 0
	.db #0x00	; 0
	.db #0x00	; 0
	.db #0x00	; 0
	.db #0x00	; 0
	.db #0x00	; 0
	.db #0x00	; 0
	.db #0x00	; 0
	.db #0x00	; 0
	.db #0x00	; 0
	.db #0x00	; 0
	.db #0x00	; 0
	.db #0x00	; 0
	.db #0x00	; 0
	.db #0x00	; 0
	.db #0x00	; 0
	.db #0x00	; 0
	.db #0x00	; 0
	.db #0x00	; 0
	.db #0x00	; 0
	.db #0x00	; 0
	.db #0x00	; 0
	.db #0x00	; 0
	.db #0x00	; 0
	.db #0x00	; 0
	.db #0x00	; 0
	.db #0x00	; 0
	.db #0x00	; 0
	.db #0x00	; 0
	.db #0x00	; 0
	.db #0x00	; 0
	.db #0x00	; 0
	.db #0x00	; 0
	.db #0x00	; 0
	.db #0x00	; 0
	.db #0x00	; 0
	.db #0x00	; 0
	.db #0x00	; 0
	.db #0x00	; 0
	.db #0x00	; 0
	.db #0x00	; 0
	.db #0x00	; 0
	.db #0x00	; 0
	.db #0x00	; 0
	.db #0x00	; 0
	.db #0x00	; 0
	.db #0x00	; 0
	.db #0x00	; 0
	.db #0x00	; 0
	.db #0x00	; 0
	.db #0x00	; 0
	.db #0x00	; 0
	.db #0x00	; 0
	.db #0x00	; 0
	.db #0x00	; 0
	.db #0x00	; 0
	.db #0x00	; 0
	.db #0x00	; 0
	.db #0x00	; 0
	.db #0x00	; 0
	.db #0x00	; 0
	.db #0x00	; 0
	.db #0x00	; 0
	.db #0x00	; 0
	.db #0x00	; 0
	.db #0x00	; 0
	.db #0x00	; 0
	.db #0x00	; 0
	.db #0x00	; 0
	.db #0x00	; 0
	.db #0x00	; 0
	.db #0x00	; 0
	.db #0x00	; 0
	.db #0x00	; 0
	.db #0x00	; 0
	.db #0x00	; 0
	.db #0x00	; 0
	.db #0x00	; 0
	.db #0x00	; 0
	.db #0x00	; 0
	.db #0x00	; 0
	.db #0x00	; 0
	.db #0x00	; 0
	.db #0x00	; 0
	.db #0x00	; 0
	.db #0x00	; 0
	.db #0x00	; 0
	.db #0x00	; 0
	.db #0x00	; 0
	.db #0x00	; 0
	.db #0x00	; 0
	.db #0x00	; 0
	.db #0x00	; 0
	.db #0x00	; 0
	.db #0x00	; 0
	.db #0x00	; 0
	.db #0x00	; 0
	.db #0x00	; 0
	.db #0x00	; 0
	.db #0x00	; 0
	.db #0x00	; 0
	.db #0x00	; 0
	.db #0x00	; 0
	.db #0x00	; 0
	.db #0x00	; 0
	.db #0x00	; 0
	.db #0x00	; 0
	.db #0x00	; 0
	.db #0x00	; 0
	.db #0x00	; 0
	.db #0x00	; 0
	.db #0x00	; 0
	.db #0x00	; 0
	.db #0x00	; 0
	.db #0x00	; 0
	.db #0x00	; 0
	.db #0x00	; 0
	.db #0x00	; 0
	.db #0x00	; 0
	.db #0x00	; 0
	.db #0x00	; 0
	.db #0x00	; 0
	.db #0x00	; 0
	.db #0x00	; 0
	.db #0x00	; 0
	.db #0x00	; 0
	.db #0x00	; 0
	.db #0x00	; 0
	.db #0x00	; 0
	.db #0x00	; 0
	.db #0x00	; 0
	.db #0x00	; 0
	.db #0x00	; 0
	.db #0x00	; 0
	.db #0x00	; 0
	.db #0x00	; 0
	.db #0x00	; 0
	.db #0x00	; 0
	.db #0x00	; 0
	.db #0x00	; 0
	.db #0x00	; 0
	.db #0x00	; 0
	.db #0x00	; 0
	.db #0x00	; 0
	.db #0x00	; 0
	.db #0x00	; 0
	.db #0x00	; 0
	.db #0x00	; 0
	.db #0x00	; 0
	.db #0x00	; 0
	.db #0x00	; 0
	.db #0x00	; 0
	.db #0x00	; 0
	.db #0x00	; 0
	.db #0x00	; 0
	.db #0x00	; 0
	.db #0x00	; 0
	.db #0x00	; 0
	.db #0x00	; 0
	.db #0x00	; 0
	.db #0x00	; 0
	.db #0x00	; 0
	.db #0x00	; 0
	.db #0x00	; 0
	.db #0x00	; 0
	.db #0x00	; 0
	.db #0x00	; 0
	.db #0x00	; 0
	.db #0x00	; 0
	.db #0x00	; 0
	.db #0x00	; 0
	.db #0x00	; 0
	.db #0x00	; 0
	.db #0x00	; 0
	.db #0x00	; 0
	.db #0x00	; 0
	.db #0x00	; 0
	.db #0x00	; 0
	.db #0x00	; 0
	.db #0x00	; 0
	.db #0x00	; 0
	.db #0x00	; 0
	.db #0x00	; 0
	.db #0x00	; 0
	.db #0x00	; 0
	.db #0x00	; 0
	.db #0x00	; 0
	.db #0x00	; 0
	.db #0x00	; 0
	.db #0x00	; 0
	.db #0x00	; 0
	.db #0x00	; 0
	.db #0x00	; 0
	.db #0x00	; 0
	.db #0x00	; 0
	.db #0x00	; 0
	.db #0x00	; 0
	.db #0x00	; 0
	.db #0x00	; 0
	.db #0x00	; 0
	.db #0x00	; 0
	.db #0x00	; 0
	.db #0x00	; 0
	.db #0x00	; 0
	.db #0x00	; 0
	.db #0x00	; 0
	.db #0x00	; 0
	.db #0x00	; 0
	.db #0x00	; 0
	.db #0x00	; 0
	.db #0x00	; 0
	.db #0x00	; 0
	.db #0x00	; 0
	.db #0x00	; 0
	.db #0x00	; 0
	.db #0x00	; 0
	.db #0x00	; 0
	.db #0x00	; 0
	.db #0x00	; 0
	.db #0x00	; 0
	.db #0x00	; 0
	.db #0x00	; 0
	.db #0x00	; 0
	.db #0x00	; 0
	.db #0x00	; 0
	.db #0x00	; 0
	.db #0x00	; 0
	.db #0x00	; 0
	.db #0x00	; 0
	.db #0x00	; 0
	.db #0x00	; 0
	.db #0x00	; 0
	.db #0x00	; 0
	.db #0x00	; 0
	.db #0x00	; 0
	.db #0x00	; 0
	.db #0x00	; 0
	.db #0x00	; 0
	.db #0x00	; 0
	.db #0x00	; 0
	.db #0x00	; 0
	.db #0x00	; 0
	.db #0x00	; 0
	.db #0x00	; 0
	.db #0x00	; 0
	.db #0x00	; 0
	.db #0x00	; 0
	.db #0x00	; 0
	.db #0x00	; 0
	.db #0x00	; 0
	.db #0x00	; 0
	.db #0x00	; 0
	.db #0x00	; 0
	.db #0x00	; 0
	.db #0x00	; 0
	.db #0x00	; 0
	.db #0x00	; 0
	.db #0x00	; 0
	.db #0x00	; 0
	.db #0x00	; 0
	.db #0x00	; 0
	.db #0x00	; 0
	.db #0x00	; 0
	.db #0x00	; 0
	.db #0x00	; 0
	.db #0x00	; 0
	.db #0x00	; 0
	.db #0x00	; 0
	.db #0x00	; 0
	.db #0x00	; 0
	.db #0x00	; 0
	.db #0x00	; 0
	.db #0x00	; 0
	.db #0x00	; 0
	.db #0x00	; 0
	.db #0x00	; 0
	.db #0x00	; 0
	.db #0x00	; 0
	.db #0x00	; 0
	.db #0x00	; 0
	.db #0x00	; 0
	.db #0x00	; 0
	.db #0x00	; 0
	.db #0x00	; 0
	.db #0x00	; 0
	.db #0x00	; 0
	.db #0x00	; 0
	.db #0x00	; 0
	.db #0x00	; 0
	.db #0x00	; 0
	.db #0x00	; 0
	.db #0x00	; 0
	.db #0x00	; 0
	.db #0x00	; 0
	.db #0x00	; 0
	.db #0x00	; 0
	.db #0x00	; 0
	.db #0x00	; 0
	.db #0x00	; 0
	.db #0x00	; 0
	.db #0x00	; 0
	.db #0x00	; 0
	.db #0x35	; 53	'5'
	.db #0x34	; 52	'4'
	.db #0x33	; 51	'3'
	.db #0x31	; 49	'1'
	.db #0x32	; 50	'2'
	.db #0x3d	; 61
	.db #0x3c	; 60
	.db #0x3e	; 62
	.db #0x3f	; 63
	.db #0x40	; 64
	.db #0x00	; 0
	.db #0x00	; 0
	.db #0x00	; 0
	.db #0x00	; 0
	.db #0x00	; 0
	.db #0x00	; 0
	.db #0x00	; 0
	.db #0x00	; 0
	.db #0x00	; 0
	.db #0x00	; 0
	.db #0x00	; 0
	.db #0x00	; 0
	.db #0x00	; 0
	.db #0x00	; 0
	.db #0x39	; 57	'9'
	.db #0x38	; 56	'8'
	.db #0x37	; 55	'7'
	.db #0x36	; 54	'6'
	.db #0x48	; 72	'H'
	.db #0x49	; 73	'I'
	.db #0x4a	; 74	'J'
	.db #0x4b	; 75	'K'
	.db #0x4c	; 76	'L'
	.db #0x4d	; 77	'M'
	.db #0x4e	; 78	'N'
	.db #0x4f	; 79	'O'
	.db #0x50	; 80	'P'
	.db #0x51	; 81	'Q'
	.db #0x42	; 66	'B'
	.db #0x43	; 67	'C'
	.db #0x44	; 68	'D'
	.db #0x45	; 69	'E'
	.db #0x00	; 0
	.db #0x00	; 0
	.db #0x00	; 0
	.db #0x00	; 0
	.db #0x00	; 0
	.db #0x00	; 0
	.db #0x00	; 0
	.db #0x00	; 0
	.db #0x00	; 0
	.db #0x3b	; 59
	.db #0x3a	; 58
	.db #0x52	; 82	'R'
	.db #0x53	; 83	'S'
	.db #0x54	; 84	'T'
	.db #0x54	; 84	'T'
	.db #0x54	; 84	'T'
	.db #0x49	; 73	'I'
	.db #0x56	; 86	'V'
	.db #0x57	; 87	'W'
	.db #0x58	; 88	'X'
	.db #0x59	; 89	'Y'
	.db #0x5a	; 90	'Z'
	.db #0x5b	; 91
	.db #0x5c	; 92
	.db #0x5d	; 93
	.db #0x5e	; 94
	.db #0x5f	; 95
	.db #0x46	; 70	'F'
	.db #0x47	; 71	'G'
	.db #0x00	; 0
	.db #0x00	; 0
	.db #0x00	; 0
	.db #0x00	; 0
	.db #0x30	; 48	'0'
	.db #0x30	; 48	'0'
	.db #0x30	; 48	'0'
	.db #0x30	; 48	'0'
	.db #0x30	; 48	'0'
	.db #0x30	; 48	'0'
	.db #0x30	; 48	'0'
	.db #0x30	; 48	'0'
	.db #0x30	; 48	'0'
	.db #0x30	; 48	'0'
	.db #0x30	; 48	'0'
	.db #0x30	; 48	'0'
	.db #0x30	; 48	'0'
	.db #0x30	; 48	'0'
	.db #0x30	; 48	'0'
	.db #0x30	; 48	'0'
	.db #0x30	; 48	'0'
	.db #0x30	; 48	'0'
	.db #0x30	; 48	'0'
	.db #0x30	; 48	'0'
	.db #0x30	; 48	'0'
	.db #0x30	; 48	'0'
	.db #0x30	; 48	'0'
	.db #0x30	; 48	'0'
	.db #0x30	; 48	'0'
	.db #0x30	; 48	'0'
	.db #0x30	; 48	'0'
	.db #0x30	; 48	'0'
	.db #0x00	; 0
	.db #0x00	; 0
	.db #0x00	; 0
	.db #0x00	; 0
	.db #0x00	; 0
	.db #0x00	; 0
	.db #0x00	; 0
	.db #0x00	; 0
	.db #0x00	; 0
	.db #0x00	; 0
	.db #0x00	; 0
	.db #0x00	; 0
	.db #0x00	; 0
	.db #0x00	; 0
	.db #0x00	; 0
	.db #0x00	; 0
	.db #0x00	; 0
	.db #0x00	; 0
	.db #0x00	; 0
	.db #0x00	; 0
	.db #0x00	; 0
	.db #0x00	; 0
	.db #0x00	; 0
	.db #0x00	; 0
	.db #0x00	; 0
	.db #0x00	; 0
	.db #0x00	; 0
	.db #0x00	; 0
_hud:
	.db #0x60	; 96
	.db #0x00	; 0
	.db #0x22	; 34
	.db #0x04	; 4
	.db #0x00	; 0
	.db #0x61	; 97	'a'
	.db #0x02	; 2
	.db #0x01	; 1
	.db #0x01	; 1
	.db #0x26	; 38
	.db #0x00	; 0
	.db #0x1a	; 26
	.db #0x1e	; 30
	.db #0x1d	; 29
	.db #0x27	; 39
	.db #0x01	; 1
	.db #0x01	; 1
	.db #0x01	; 1
	.db #0x01	; 1
	.db #0x01	; 1
;home_defender.c:67: void moveSprites(sprite* object, uint8_t x, uint8_t y){
;	---------------------------------
; Function moveSprites
; ---------------------------------
_moveSprites::
	add	sp, #-10
;home_defender.c:68: move_sprite(object->spriteIDs[0], object->x + x, object->y + y);
	ldhl	sp,	#12
	ld	a, (hl+)
	ld	c, a
	ld	b, (hl)
	ld	hl, #0x0005
	add	hl, bc
	inc	sp
	inc	sp
	ld	e, l
	ld	d, h
	push	de
	ld	a, (de)
	ldhl	sp,	#15
	add	a, (hl)
	ldhl	sp,	#8
	ld	(hl), a
	ld	hl, #0x0004
	add	hl, bc
	push	hl
	ld	a, l
	ldhl	sp,	#4
	ld	(hl), a
	pop	hl
	ld	a, h
	ldhl	sp,	#3
	ld	(hl-), a
	ld	a, (hl+)
	ld	e, a
	ld	d, (hl)
	ld	a, (de)
	ldhl	sp,	#14
	add	a, (hl)
	ldhl	sp,	#9
	ld	(hl), a
	ld	a, (bc)
;c:/gbdk/include/gb/gb.h:1520: OAM_item_t * itm = &shadow_OAM[nb];
	ld	l, a
;	spillPairReg hl
;	spillPairReg hl
	ld	h, #0x00
;	spillPairReg hl
;	spillPairReg hl
	add	hl, hl
	add	hl, hl
	ld	de, #_shadow_OAM
	add	hl, de
	ld	e, l
	ld	d, h
;c:/gbdk/include/gb/gb.h:1521: itm->y=y, itm->x=x;
	ldhl	sp,	#8
	ld	a, (hl+)
	ld	(de), a
	inc	de
	ld	a, (hl)
	ld	(de), a
;home_defender.c:69: if(object->width == 16){
	ld	hl, #0x0006
	add	hl, bc
	push	hl
	ld	a, l
	ldhl	sp,	#6
	ld	(hl), a
	pop	hl
	ld	a, h
	ldhl	sp,	#5
	ld	(hl-), a
	ld	a, (hl+)
	ld	e, a
	ld	d, (hl)
	ld	a, (de)
	sub	a, #0x10
	jr	NZ, 00102$
;home_defender.c:70: move_sprite(object->spriteIDs[1], object->x + 8 + x, object->y + y);
	pop	de
	push	de
	ld	a, (de)
	ldhl	sp,	#15
	add	a, (hl)
	ldhl	sp,	#8
	ld	(hl), a
	ldhl	sp,#2
	ld	a, (hl+)
	ld	e, a
	ld	d, (hl)
	ld	a, (de)
	add	a, #0x08
	ldhl	sp,	#14
	ld	e, (hl)
	add	a, e
	ldhl	sp,	#9
	ld	(hl), a
	ld	l, c
;	spillPairReg hl
;	spillPairReg hl
	ld	h, b
;	spillPairReg hl
;	spillPairReg hl
	inc	hl
;c:/gbdk/include/gb/gb.h:1520: OAM_item_t * itm = &shadow_OAM[nb];
	ld	l, (hl)
;	spillPairReg hl
;	spillPairReg hl
	ld	h, #0x00
;	spillPairReg hl
;	spillPairReg hl
	add	hl, hl
	add	hl, hl
	ld	de, #_shadow_OAM
	add	hl, de
	ld	e, l
	ld	d, h
;c:/gbdk/include/gb/gb.h:1521: itm->y=y, itm->x=x;
	ldhl	sp,	#8
	ld	a, (hl+)
	ld	(de), a
	inc	de
	ld	a, (hl)
	ld	(de), a
;home_defender.c:70: move_sprite(object->spriteIDs[1], object->x + 8 + x, object->y + y);
00102$:
;home_defender.c:72: if(object->height == 16){
	ld	hl, #0x0007
	add	hl, bc
	push	hl
	ld	a, l
	ldhl	sp,	#8
	ld	(hl), a
	pop	hl
	ld	a, h
	ldhl	sp,	#7
	ld	(hl-), a
	ld	a, (hl+)
	ld	e, a
	ld	d, (hl)
	ld	a, (de)
	sub	a, #0x10
	jr	NZ, 00104$
;home_defender.c:73: move_sprite(object->spriteIDs[2], object->x + x, object->y + 8 + y);
	pop	de
	push	de
	ld	a, (de)
	add	a, #0x08
	ldhl	sp,	#15
	ld	e, (hl)
	add	a, e
	ldhl	sp,	#8
	ld	(hl), a
	ldhl	sp,#2
	ld	a, (hl+)
	ld	e, a
	ld	d, (hl)
	ld	a, (de)
	ldhl	sp,	#14
	add	a, (hl)
	ldhl	sp,	#9
	ld	(hl), a
	ld	l, c
;	spillPairReg hl
;	spillPairReg hl
	ld	h, b
;	spillPairReg hl
;	spillPairReg hl
	inc	hl
	inc	hl
;c:/gbdk/include/gb/gb.h:1520: OAM_item_t * itm = &shadow_OAM[nb];
	ld	l, (hl)
;	spillPairReg hl
;	spillPairReg hl
	ld	h, #0x00
;	spillPairReg hl
;	spillPairReg hl
	add	hl, hl
	add	hl, hl
	ld	de, #_shadow_OAM
	add	hl, de
	ld	e, l
	ld	d, h
;c:/gbdk/include/gb/gb.h:1521: itm->y=y, itm->x=x;
	ldhl	sp,	#8
	ld	a, (hl+)
	ld	(de), a
	inc	de
	ld	a, (hl)
	ld	(de), a
;home_defender.c:73: move_sprite(object->spriteIDs[2], object->x + x, object->y + 8 + y);
00104$:
;home_defender.c:75: if(object->width == 16 && object->height == 16){
	ldhl	sp,#4
	ld	a, (hl+)
	ld	e, a
	ld	d, (hl)
	ld	a, (de)
	sub	a, #0x10
	jr	NZ, 00106$
	inc	hl
	ld	a, (hl+)
	ld	e, a
	ld	d, (hl)
	ld	a, (de)
	sub	a, #0x10
	jr	NZ, 00106$
;home_defender.c:76: move_sprite(object->spriteIDs[3], object->x + 8 + x, object->y + 8 + y);
	pop	de
	push	de
	ld	a, (de)
	add	a, #0x08
	ldhl	sp,	#15
	ld	e, (hl)
	add	a, e
	ldhl	sp,	#9
	ld	(hl), a
	ldhl	sp,#2
	ld	a, (hl+)
	ld	e, a
	ld	d, (hl)
	ld	a, (de)
	add	a, #0x08
	ldhl	sp,	#14
	ld	e, (hl)
	add	a, e
	ld	e, a
	inc	bc
	inc	bc
	inc	bc
	ld	a, (bc)
;c:/gbdk/include/gb/gb.h:1520: OAM_item_t * itm = &shadow_OAM[nb];
	ld	l, a
	ld	bc, #_shadow_OAM+0
;	spillPairReg hl
;	spillPairReg hl
	ld	h, #0x00
;	spillPairReg hl
;	spillPairReg hl
	add	hl, hl
	add	hl, hl
	add	hl, bc
	ld	c, l
	ld	b, h
;c:/gbdk/include/gb/gb.h:1521: itm->y=y, itm->x=x;
	ldhl	sp,	#9
	ld	a, (hl)
	ld	(bc), a
	inc	bc
	ld	a, e
	ld	(bc), a
;home_defender.c:76: move_sprite(object->spriteIDs[3], object->x + 8 + x, object->y + 8 + y);
00106$:
;home_defender.c:78: object->x += x;
	ldhl	sp,#2
	ld	a, (hl+)
	ld	e, a
	ld	d, (hl)
	ld	a, (de)
	ldhl	sp,	#14
	add	a, (hl)
	ld	c, a
	ldhl	sp,	#2
	ld	a,	(hl+)
	ld	h, (hl)
	ld	l, a
	ld	(hl), c
;home_defender.c:79: object->y += y;
	pop	de
	push	de
	ld	a, (de)
	ldhl	sp,	#15
	add	a, (hl)
	ld	c, a
	pop	hl
	push	hl
	ld	(hl), c
;home_defender.c:80: }
	add	sp, #10
	ret
;home_defender.c:83: void performanceDelay(uint8_t num){
;	---------------------------------
; Function performanceDelay
; ---------------------------------
_performanceDelay::
;home_defender.c:85: for(i = 0; i < num; i++){
	ld	c, #0x00
00103$:
	ld	a, c
	ldhl	sp,	#2
	sub	a, (hl)
	ret	NC
;home_defender.c:86: wait_vbl_done();
	call	_wait_vbl_done
;home_defender.c:85: for(i = 0; i < num; i++){
	inc	c
;home_defender.c:88: }
	jr	00103$
;home_defender.c:91: void fadeOut(){
;	---------------------------------
; Function fadeOut
; ---------------------------------
_fadeOut::
;home_defender.c:93: for(i = 0; i < 4; i++){
	ld	c, #0x00
00107$:
;home_defender.c:94: switch(i){
	ld	a, c
	or	a, a
	jr	Z, 00101$
	ld	a, c
	dec	a
	jr	Z, 00102$
	ld	a,c
	cp	a,#0x02
	jr	Z, 00103$
	sub	a, #0x03
	jr	Z, 00104$
	jr	00105$
;home_defender.c:95: case 0:
00101$:
;home_defender.c:96: BGP_REG = 0xE4;
	ld	a, #0xe4
	ldh	(_BGP_REG + 0), a
;home_defender.c:97: break;
	jr	00105$
;home_defender.c:98: case 1:
00102$:
;home_defender.c:99: BGP_REG = 0xF9;
	ld	a, #0xf9
	ldh	(_BGP_REG + 0), a
;home_defender.c:100: break;
	jr	00105$
;home_defender.c:101: case 2:
00103$:
;home_defender.c:102: BGP_REG = 0xFE;
	ld	a, #0xfe
	ldh	(_BGP_REG + 0), a
;home_defender.c:103: break;
	jr	00105$
;home_defender.c:104: case 3:
00104$:
;home_defender.c:105: BGP_REG = 0xFF;
	ld	a, #0xff
	ldh	(_BGP_REG + 0), a
;home_defender.c:107: }
00105$:
;home_defender.c:108: performanceDelay(3);
	push	bc
	ld	a, #0x03
	push	af
	inc	sp
	call	_performanceDelay
	inc	sp
	pop	bc
;home_defender.c:93: for(i = 0; i < 4; i++){
	inc	c
	ld	a, c
	sub	a, #0x04
	jr	C, 00107$
;home_defender.c:110: }
	ret
;home_defender.c:113: void fadeIn(){
;	---------------------------------
; Function fadeIn
; ---------------------------------
_fadeIn::
;home_defender.c:115: for(i = 0; i < 3; i++){
	ld	c, #0x00
00106$:
;home_defender.c:116: switch(i){
	ld	a, c
	or	a, a
	jr	Z, 00101$
	ld	a, c
	dec	a
	jr	Z, 00102$
	ld	a, c
	sub	a, #0x02
	jr	Z, 00103$
	jr	00104$
;home_defender.c:117: case 0:
00101$:
;home_defender.c:118: BGP_REG = 0xFE;
	ld	a, #0xfe
	ldh	(_BGP_REG + 0), a
;home_defender.c:119: break;
	jr	00104$
;home_defender.c:120: case 1:
00102$:
;home_defender.c:121: BGP_REG = 0xF9;
	ld	a, #0xf9
	ldh	(_BGP_REG + 0), a
;home_defender.c:122: break;
	jr	00104$
;home_defender.c:123: case 2:
00103$:
;home_defender.c:124: BGP_REG = 0xE4;
	ld	a, #0xe4
	ldh	(_BGP_REG + 0), a
;home_defender.c:126: }
00104$:
;home_defender.c:127: performanceDelay(3);
	push	bc
	ld	a, #0x03
	push	af
	inc	sp
	call	_performanceDelay
	inc	sp
	pop	bc
;home_defender.c:115: for(i = 0; i < 3; i++){
	inc	c
	ld	a, c
	sub	a, #0x03
	jr	C, 00106$
;home_defender.c:129: }
	ret
;home_defender.c:132: void fadeTransition(uint8_t num, char* data, char* tiles){
;	---------------------------------
; Function fadeTransition
; ---------------------------------
_fadeTransition::
;home_defender.c:133: fadeOut();
	call	_fadeOut
;home_defender.c:134: set_bkg_data(0, num, data);
	ldhl	sp,	#3
	ld	a, (hl+)
	ld	e, a
	ld	a, (hl-)
	dec	hl
	ld	d, a
	push	de
	ld	h, (hl)
	ld	l, #0x00
	push	hl
	call	_set_bkg_data
	add	sp, #4
;home_defender.c:135: set_bkg_tiles(0, 0, 20, 18, tiles);
	ldhl	sp,	#5
	ld	a, (hl+)
	ld	e, a
	ld	d, (hl)
	push	de
	ld	hl, #0x1214
	push	hl
	xor	a, a
	rrca
	push	af
	xor	a, a
	call	_set_bkg_tiles
	add	sp, #6
;home_defender.c:136: fadeIn();
;home_defender.c:137: }
	jp	_fadeIn
;home_defender.c:140: void playSounds(uint8_t soundVal){
;	---------------------------------
; Function playSounds
; ---------------------------------
_playSounds::
;home_defender.c:141: if(soundVal == 0){
	ldhl	sp,	#2
	ld	a, (hl)
	or	a, a
	jr	NZ, 00102$
;home_defender.c:143: NR10_REG = 0x25;
	ld	a, #0x25
	ldh	(_NR10_REG + 0), a
;home_defender.c:144: NR11_REG = 0x86;
	ld	a, #0x86
	ldh	(_NR11_REG + 0), a
;home_defender.c:145: NR12_REG = 0x36;
	ld	a, #0x36
	ldh	(_NR12_REG + 0), a
;home_defender.c:146: NR13_REG = 0x72;
	ld	a, #0x72
	ldh	(_NR13_REG + 0), a
;home_defender.c:147: NR14_REG = 0x86;
	ld	a, #0x86
	ldh	(_NR14_REG + 0), a
00102$:
;home_defender.c:149: if(soundVal == 1){
	ldhl	sp,	#2
	ld	a, (hl)
	dec	a
	jr	NZ, 00104$
;home_defender.c:151: NR10_REG = 0x15;
	ld	a, #0x15
	ldh	(_NR10_REG + 0), a
;home_defender.c:152: NR11_REG = 0xC0;
	ld	a, #0xc0
	ldh	(_NR11_REG + 0), a
;home_defender.c:153: NR12_REG = 0x24;
	ld	a, #0x24
	ldh	(_NR12_REG + 0), a
;home_defender.c:154: NR13_REG = 0x73;
	ld	a, #0x73
	ldh	(_NR13_REG + 0), a
;home_defender.c:155: NR14_REG = 0x86;
	ld	a, #0x86
	ldh	(_NR14_REG + 0), a
00104$:
;home_defender.c:157: if(soundVal == 2){
	ldhl	sp,	#2
	ld	a, (hl)
	sub	a, #0x02
	jr	NZ, 00106$
;home_defender.c:159: NR10_REG = 0x2D;
	ld	a, #0x2d
	ldh	(_NR10_REG + 0), a
;home_defender.c:160: NR11_REG = 0x86;
	ld	a, #0x86
	ldh	(_NR11_REG + 0), a
;home_defender.c:161: NR12_REG = 0x36;
	ld	a, #0x36
	ldh	(_NR12_REG + 0), a
;home_defender.c:162: NR13_REG = 0x72;
	ld	a, #0x72
	ldh	(_NR13_REG + 0), a
;home_defender.c:163: NR14_REG = 0x86;
	ld	a, #0x86
	ldh	(_NR14_REG + 0), a
00106$:
;home_defender.c:165: if(soundVal == 3){
	ldhl	sp,	#2
	ld	a, (hl)
	sub	a, #0x03
	jr	NZ, 00108$
;home_defender.c:167: NR10_REG = 0x4D;
	ld	a, #0x4d
	ldh	(_NR10_REG + 0), a
;home_defender.c:168: NR11_REG = 0xCF;
	ld	a, #0xcf
	ldh	(_NR11_REG + 0), a
;home_defender.c:169: NR12_REG = 0x64;
	ld	a, #0x64
	ldh	(_NR12_REG + 0), a
;home_defender.c:170: NR13_REG = 0xFA;
	ld	a, #0xfa
	ldh	(_NR13_REG + 0), a
;home_defender.c:171: NR14_REG = 0x86;
	ld	a, #0x86
	ldh	(_NR14_REG + 0), a
00108$:
;home_defender.c:173: if(soundVal == 4){
	ldhl	sp,	#2
	ld	a, (hl)
	sub	a, #0x04
	jr	NZ, 00110$
;home_defender.c:175: NR41_REG = 0x03;
	ld	a, #0x03
	ldh	(_NR41_REG + 0), a
;home_defender.c:176: NR42_REG = 0xE7;
	ld	a, #0xe7
	ldh	(_NR42_REG + 0), a
;home_defender.c:177: NR43_REG = 0xA8;
	ld	a, #0xa8
	ldh	(_NR43_REG + 0), a
;home_defender.c:178: NR44_REG = 0x80;
	ld	a, #0x80
	ldh	(_NR44_REG + 0), a
00110$:
;home_defender.c:180: if(soundVal == 5){
	ldhl	sp,	#2
	ld	a, (hl)
	sub	a, #0x05
	jr	NZ, 00112$
;home_defender.c:182: NR21_REG = 0xCA;
	ld	a, #0xca
	ldh	(_NR21_REG + 0), a
;home_defender.c:183: NR22_REG = 0x83;
	ld	a, #0x83
	ldh	(_NR22_REG + 0), a
;home_defender.c:184: NR23_REG = 0xD7;
	ld	a, #0xd7
	ldh	(_NR23_REG + 0), a
;home_defender.c:185: NR24_REG = 0xC6;
	ld	a, #0xc6
	ldh	(_NR24_REG + 0), a
00112$:
;home_defender.c:187: if(soundVal == 6){
	ldhl	sp,	#2
	ld	a, (hl)
	sub	a, #0x06
	jr	NZ, 00114$
;home_defender.c:189: NR41_REG = 0x3A;
	ld	a, #0x3a
	ldh	(_NR41_REG + 0), a
;home_defender.c:190: NR42_REG = 0xA1;
	ld	a, #0xa1
	ldh	(_NR42_REG + 0), a
;home_defender.c:191: NR43_REG = 0x00;
	xor	a, a
	ldh	(_NR43_REG + 0), a
;home_defender.c:192: NR44_REG = 0xC0;
	ld	a, #0xc0
	ldh	(_NR44_REG + 0), a
00114$:
;home_defender.c:198: if(soundVal == 8){
	ldhl	sp,	#2
	ld	a, (hl)
	sub	a, #0x08
	jr	NZ, 00116$
;home_defender.c:200: NR41_REG = 0x00;
	xor	a, a
	ldh	(_NR41_REG + 0), a
;home_defender.c:201: NR42_REG = 0xD6;
	ld	a, #0xd6
	ldh	(_NR42_REG + 0), a
;home_defender.c:202: NR43_REG = 0x37;
	ld	a, #0x37
	ldh	(_NR43_REG + 0), a
;home_defender.c:203: NR44_REG = 0x80;
	ld	a, #0x80
	ldh	(_NR44_REG + 0), a
00116$:
;home_defender.c:205: if(soundVal == 9){
	ldhl	sp,	#2
	ld	a, (hl)
	sub	a, #0x09
	ret	NZ
;home_defender.c:208: NR21_REG = 0xCA;
	ld	a, #0xca
	ldh	(_NR21_REG + 0), a
;home_defender.c:209: NR22_REG = 0x83;
	ld	a, #0x83
	ldh	(_NR22_REG + 0), a
;home_defender.c:210: NR23_REG = 0xD7;
	ld	a, #0xd7
	ldh	(_NR23_REG + 0), a
;home_defender.c:211: NR24_REG = 0xC6;
	ld	a, #0xc6
	ldh	(_NR24_REG + 0), a
;home_defender.c:213: }
	ret
;home_defender.c:216: void startScreen(){
;	---------------------------------
; Function startScreen
; ---------------------------------
_startScreen::
;home_defender.c:217: SHOW_BKG;
	ldh	a, (_LCDC_REG + 0)
	or	a, #0x01
	ldh	(_LCDC_REG + 0), a
;home_defender.c:219: waitpad(J_START);
	ld	a, #0x80
	push	af
	inc	sp
	call	_waitpad
	inc	sp
;home_defender.c:220: playSounds(0);
	xor	a, a
	push	af
	inc	sp
	call	_playSounds
	inc	sp
;home_defender.c:221: performanceDelay(4);
	ld	a, #0x04
	push	af
	inc	sp
	call	_performanceDelay
	inc	sp
;home_defender.c:222: }
	ret
;home_defender.c:225: void playGame(){
;	---------------------------------
; Function playGame
; ---------------------------------
_playGame::
	dec	sp
;home_defender.c:227: currScore = 0;
	ld	hl, #_currScore
	ld	(hl), #0x00
;home_defender.c:231: uint8_t life = 3;
	ldhl	sp,	#0
	ld	(hl), #0x03
;home_defender.c:234: fadeOut();
	call	_fadeOut
;home_defender.c:235: set_bkg_tiles(0, 0, 28, 18, game_screen);
	ld	de, #_game_screen
	push	de
	ld	hl, #0x121c
	push	hl
	xor	a, a
	rrca
	push	af
	call	_set_bkg_tiles
	add	sp, #6
;c:/gbdk/include/gb/gb.h:1080: SCX_REG=x, SCY_REG=y;
	ld	a, #0x20
	ldh	(_SCX_REG + 0), a
	xor	a, a
	ldh	(_SCY_REG + 0), a
;home_defender.c:237: set_win_data(0, 97, bkg);
	ld	de, #_bkg
	push	de
	ld	hl, #0x6100
	push	hl
	call	_set_win_data
	add	sp, #4
;home_defender.c:238: set_win_tiles(0, 0, 20, 1, hud);
	ld	de, #_hud
	push	de
	ld	hl, #0x114
	push	hl
	xor	a, a
	rrca
	push	af
	call	_set_win_tiles
	add	sp, #6
;c:/gbdk/include/gb/gb.h:1316: WX_REG=x, WY_REG=y;
	ld	a, #0x08
	ldh	(_WX_REG + 0), a
	ld	a, #0x86
	ldh	(_WY_REG + 0), a
;home_defender.c:240: SHOW_WIN;
	ldh	a, (_LCDC_REG + 0)
	or	a, #0x20
	ldh	(_LCDC_REG + 0), a
;home_defender.c:241: setUpSprites();
	call	_setUpSprites
;home_defender.c:242: moveSprites(&maverick, 80, 100);
	ld	hl, #0x6450
	push	hl
	ld	de, #_maverick
	push	de
	call	_moveSprites
	add	sp, #4
;home_defender.c:243: fadeIn();
	call	_fadeIn
;home_defender.c:245: while(earthHealth > 0 && life < 4){
00110$:
	ldhl	sp,	#0
	ld	a, (hl)
	sub	a, #0x04
	jr	NC, 00112$
;home_defender.c:246: if(joypad() & J_LEFT && maverick.x > 9){
	call	_joypad
	bit	1, e
	jr	Z, 00102$
	ld	hl, #(_maverick + 4)
	ld	c, (hl)
	ld	a, #0x09
	sub	a, c
	jr	NC, 00102$
;home_defender.c:247: moveSprites(&maverick, -(maverick.speed), 0);
	ld	hl, #(_maverick + 9)
	ld	c, (hl)
	xor	a, a
	sub	a, c
	ld	b, a
	xor	a, a
	push	af
	inc	sp
	push	bc
	inc	sp
	ld	de, #_maverick
	push	de
	call	_moveSprites
	add	sp, #4
00102$:
;home_defender.c:249: if (joypad() & J_RIGHT && maverick.x < 151){
	call	_joypad
	ld	a, e
	rrca
	jr	NC, 00105$
	ld	a, (#(_maverick + 4) + 0)
	sub	a, #0x97
	jr	NC, 00105$
;home_defender.c:250: moveSprites(&maverick, maverick.speed, 0);
	ld	a, (#(_maverick + 9) + 0)
	ld	h, #0x00
;	spillPairReg hl
;	spillPairReg hl
	push	hl
	inc	sp
	push	af
	inc	sp
	ld	de, #_maverick
	push	de
	call	_moveSprites
	add	sp, #4
00105$:
;home_defender.c:252: if(joypad() & J_SELECT){
	call	_joypad
	bit	6, e
	jr	Z, 00108$
;home_defender.c:253: life = 4;
	ldhl	sp,	#0
	ld	(hl), #0x04
00108$:
;home_defender.c:256: performanceDelay(2);
	ld	a, #0x02
	push	af
	inc	sp
	call	_performanceDelay
	inc	sp
	jr	00110$
00112$:
;home_defender.c:259: if(currScore > hiScore){
	ld	a, (#_hiScore)
	ld	hl, #_currScore
	sub	a, (hl)
	jr	NC, 00114$
;home_defender.c:260: hiScore = currScore;
	ld	a, (hl)
	ld	(#_hiScore),a
00114$:
;home_defender.c:263: waitpad(J_A);
	ld	a, #0x10
	push	af
	inc	sp
;home_defender.c:265: }
	call	_waitpad
	pop	hl
	ret
;home_defender.c:268: void displayStats(){
;	---------------------------------
; Function displayStats
; ---------------------------------
_displayStats::
	add	sp, #-7
;home_defender.c:273: fadeOut();
	call	_fadeOut
;home_defender.c:274: set_bkg_tiles(0, 0, 20, 18, stats_screen);
	ld	de, #_stats_screen
	push	de
	ld	hl, #0x1214
	push	hl
	xor	a, a
	rrca
	push	af
	call	_set_bkg_tiles
	add	sp, #6
;c:/gbdk/include/gb/gb.h:1080: SCX_REG=x, SCY_REG=y;
	xor	a, a
	ldh	(_SCX_REG + 0), a
	xor	a, a
	ldh	(_SCY_REG + 0), a
;home_defender.c:279: playsKeeper = numplays;
	ld	hl, #_numplays
	ld	c, (hl)
	ld	b, #0x00
;home_defender.c:280: numPlaysKeeper[0] = 1 + (playsKeeper/100);
	ldhl	sp,	#0
	ld	a, l
	ld	d, h
	ldhl	sp,	#3
	ld	(hl+), a
	ld	(hl), d
	push	bc
	ld	de, #0x0064
	push	de
	push	bc
	call	__divuint
	add	sp, #4
	ldhl	sp,	#7
	ld	a, e
	ld	(hl+), a
	ld	(hl), d
	pop	bc
	ldhl	sp,	#5
	ld	a, (hl-)
	dec	hl
	inc	a
	push	af
	ld	a,	(hl+)
	ld	h, (hl)
	ld	l, a
	pop	af
	ld	(hl), a
;home_defender.c:281: remainder = playsKeeper - ((playsKeeper/100)*100);
	ldhl	sp,#5
	ld	a, (hl+)
	ld	e, a
	ld	d, (hl)
	ld	l, e
	ld	h, d
	add	hl, hl
	add	hl, de
	add	hl, hl
	add	hl, hl
	add	hl, hl
	add	hl, de
	add	hl, hl
	add	hl, hl
	ld	a, c
	sub	a, l
	ld	e, a
	ld	a, b
	sbc	a, h
;home_defender.c:283: numPlaysKeeper[1] = 1 + (playsKeeper/10);
	ldhl	sp,	#3
	ld	c, (hl)
	inc	hl
	ld	b, (hl)
	inc	bc
	push	bc
	ld	hl, #0x000a
	push	hl
	ld	d, a
	push	de
	call	__divuint
	add	sp, #4
	pop	bc
	ld	a, e
	inc	a
	ld	(bc), a
;home_defender.c:285: numPlaysKeeper[2] = 1 + (numplays %10);
	ldhl	sp,	#3
	ld	a, (hl+)
	ld	c, a
	ld	b, (hl)
	inc	bc
	inc	bc
	ld	hl, #_numplays
	ld	e, (hl)
	ld	d, #0x00
	push	bc
	ld	hl, #0x000a
	push	hl
	push	de
	call	__modsint
	add	sp, #4
	pop	bc
	ld	a, e
	inc	a
	ld	(bc), a
;home_defender.c:286: set_bkg_tiles(6, 14, 3, 1, numPlaysKeeper);
	ldhl	sp,	#3
	ld	a, (hl+)
	ld	c, a
	ld	b, (hl)
	push	bc
	ld	hl, #0x103
	push	hl
	ld	hl, #0xe06
	push	hl
	call	_set_bkg_tiles
	add	sp, #6
;home_defender.c:288: HIDE_WIN;
	ldh	a, (_LCDC_REG + 0)
	and	a, #0xdf
	ldh	(_LCDC_REG + 0), a
;home_defender.c:289: fadeIn();
	call	_fadeIn
;home_defender.c:291: waitpad(J_B);
	ld	a, #0x20
	push	af
	inc	sp
	call	_waitpad
	inc	sp
;home_defender.c:293: playSounds(2);
	ld	a, #0x02
	push	af
	inc	sp
	call	_playSounds
	inc	sp
;home_defender.c:294: fadeTransition(97, bkg, menu_screen);
	ld	de, #_menu_screen
	push	de
	ld	de, #_bkg
	push	de
	ld	a, #0x61
	push	af
	inc	sp
	call	_fadeTransition
;home_defender.c:296: }
	add	sp, #12
	ret
;home_defender.c:299: void menuSelection(){
;	---------------------------------
; Function menuSelection
; ---------------------------------
_menuSelection::
	dec	sp
;home_defender.c:302: fadeTransition(98, bkg, menu_screen);
	ld	de, #_menu_screen
	push	de
	ld	de, #_bkg
	push	de
	ld	a, #0x62
	push	af
	inc	sp
	call	_fadeTransition
	add	sp, #5
;home_defender.c:304: set_sprite_data(0, 19, sprites);
	ld	de, #_sprites
	push	de
	ld	hl, #0x1300
	push	hl
	call	_set_sprite_data
	add	sp, #4
;c:/gbdk/include/gb/gb.h:1447: shadow_OAM[nb].tile=tile;
	ld	hl, #(_shadow_OAM + 2)
	ld	(hl), #0x01
;c:/gbdk/include/gb/gb.h:1520: OAM_item_t * itm = &shadow_OAM[nb];
	ld	hl, #_shadow_OAM
;c:/gbdk/include/gb/gb.h:1521: itm->y=y, itm->x=x;
	ld	a, #0x30
	ld	(hl+), a
	ld	(hl), #0x28
;home_defender.c:308: SHOW_SPRITES;
	ldh	a, (_LCDC_REG + 0)
	or	a, #0x02
	ldh	(_LCDC_REG + 0), a
;home_defender.c:310: selection = 0;
	ld	c, #0x00
;home_defender.c:311: cursorPos = 0;
	ldhl	sp,	#0
	ld	(hl), #0x00
;home_defender.c:313: while(selection != 3){
00126$:
	ld	a, c
	sub	a, #0x03
	jp	Z,00137$
;home_defender.c:315: if(joypad() & J_DOWN){
	call	_joypad
	bit	3, e
	jr	Z, 00104$
;home_defender.c:316: cursorPos++;
	ldhl	sp,	#0
	inc	(hl)
;home_defender.c:317: if(cursorPos > 1){ cursorPos = 0; }
	ld	a, #0x01
	sub	a, (hl)
	jr	NC, 00102$
	ld	(hl), #0x00
00102$:
;home_defender.c:318: playSounds(1);
	push	bc
	ld	a, #0x01
	push	af
	inc	sp
	call	_playSounds
	inc	sp
	pop	bc
;home_defender.c:319: move_sprite(0, 40, 48 + (cursorPos*16));
	ldhl	sp,	#0
	ld	a, (hl)
	swap	a
	and	a, #0xf0
	add	a, #0x30
	ld	b, a
;c:/gbdk/include/gb/gb.h:1520: OAM_item_t * itm = &shadow_OAM[nb];
	ld	hl, #_shadow_OAM
;c:/gbdk/include/gb/gb.h:1521: itm->y=y, itm->x=x;
	ld	a, b
	ld	(hl+), a
	ld	(hl), #0x28
;home_defender.c:320: performanceDelay(10);
	push	bc
	ld	a, #0x0a
	push	af
	inc	sp
	call	_performanceDelay
	inc	sp
	pop	bc
00104$:
;home_defender.c:322: if(joypad() & J_UP){
	call	_joypad
	bit	2, e
	jr	Z, 00108$
;home_defender.c:323: cursorPos--;
	ldhl	sp,	#0
	dec	(hl)
;home_defender.c:324: if(cursorPos > 1){ cursorPos = 1; }
	ld	a, #0x01
	sub	a, (hl)
	jr	NC, 00106$
	ld	(hl), #0x01
00106$:
;home_defender.c:325: playSounds(1);
	push	bc
	ld	a, #0x01
	push	af
	inc	sp
	call	_playSounds
	inc	sp
	pop	bc
;home_defender.c:326: move_sprite(0, 40, 48+(cursorPos*16));
	ldhl	sp,	#0
	ld	a, (hl)
	swap	a
	and	a, #0xf0
	add	a, #0x30
	ld	b, a
;c:/gbdk/include/gb/gb.h:1520: OAM_item_t * itm = &shadow_OAM[nb];
	ld	hl, #_shadow_OAM
;c:/gbdk/include/gb/gb.h:1521: itm->y=y, itm->x=x;
	ld	a, b
	ld	(hl+), a
	ld	(hl), #0x28
;home_defender.c:327: performanceDelay(10);
	push	bc
	ld	a, #0x0a
	push	af
	inc	sp
	call	_performanceDelay
	inc	sp
	pop	bc
00108$:
;home_defender.c:329: if(joypad() & J_B){
	call	_joypad
	bit	5, e
	jr	Z, 00110$
;home_defender.c:330: playSounds(2);
	ld	a, #0x02
	push	af
	inc	sp
	call	_playSounds
	inc	sp
;home_defender.c:331: selection = 3;
	ld	c, #0x03
00110$:
;home_defender.c:333: if(joypad() & J_A){
	call	_joypad
	bit	4, e
	jr	Z, 00116$
;home_defender.c:334: playSounds(0);
	push	bc
	xor	a, a
	push	af
	inc	sp
	call	_playSounds
	inc	sp
	pop	bc
;home_defender.c:335: if(cursorPos == 0){ selection = 1; }
	ldhl	sp,	#0
	ld	a, (hl)
	or	a, a
	jr	NZ, 00112$
	ld	c, #0x01
00112$:
;home_defender.c:336: if(cursorPos == 1){ selection = 2; }
	ldhl	sp,	#0
	ld	a, (hl)
	dec	a
	jr	NZ, 00116$
	ld	c, #0x02
00116$:
;home_defender.c:339: if(selection != 0 && selection != 3){
	ld	a, c
	or	a, a
	jr	Z, 00122$
	ld	a, c
	sub	a, #0x03
	jr	Z, 00122$
;c:/gbdk/include/gb/gb.h:1520: OAM_item_t * itm = &shadow_OAM[nb];
	ld	de, #_shadow_OAM+0
;c:/gbdk/include/gb/gb.h:1521: itm->y=y, itm->x=x;
	xor	a, a
	ld	(de), a
	inc	de
	xor	a, a
	ld	(de), a
;home_defender.c:341: if(selection == 1){
	ld	a, c
	dec	a
	jr	NZ, 00118$
;home_defender.c:342: numplays++;
	ld	hl, #_numplays
	inc	(hl)
;home_defender.c:343: playGame();
	push	bc
	call	_playGame
	call	_displayStats
	pop	bc
00118$:
;home_defender.c:346: if(selection == 2){
	ld	a, c
	sub	a, #0x02
	jr	NZ, 00120$
;home_defender.c:347: displayStats();
	call	_displayStats
00120$:
;home_defender.c:349: set_sprite_data(0, 19, sprites);
	ld	de, #_sprites
	push	de
	ld	hl, #0x1300
	push	hl
	call	_set_sprite_data
	add	sp, #4
;c:/gbdk/include/gb/gb.h:1447: shadow_OAM[nb].tile=tile;
	ld	hl, #(_shadow_OAM + 2)
	ld	(hl), #0x01
;c:/gbdk/include/gb/gb.h:1520: OAM_item_t * itm = &shadow_OAM[nb];
	ld	hl, #_shadow_OAM
;c:/gbdk/include/gb/gb.h:1521: itm->y=y, itm->x=x;
	ld	a, #0x30
	ld	(hl+), a
	ld	(hl), #0x28
;home_defender.c:352: cursorPos = 0;
	ldhl	sp,	#0
	ld	(hl), #0x00
;home_defender.c:353: selection = 0;
	ld	c, #0x00
;home_defender.c:354: performanceDelay(10);
	push	bc
	ld	a, #0x0a
	push	af
	inc	sp
	call	_performanceDelay
	inc	sp
	pop	bc
00122$:
;home_defender.c:356: if(selection == 3){ move_sprite(0, 0, 0); }
	ld	a, c
	sub	a, #0x03
	jp	NZ,00126$
;c:/gbdk/include/gb/gb.h:1520: OAM_item_t * itm = &shadow_OAM[nb];
	ld	de, #_shadow_OAM
;c:/gbdk/include/gb/gb.h:1521: itm->y=y, itm->x=x;
	xor	a, a
	ld	(de), a
	inc	de
	xor	a, a
	ld	(de), a
;home_defender.c:356: if(selection == 3){ move_sprite(0, 0, 0); }
	jp	00126$
00137$:
;home_defender.c:358: }
	inc	sp
	ret
;home_defender.c:361: void main(){
;	---------------------------------
; Function main
; ---------------------------------
_main::
;home_defender.c:364: NR52_REG = 0x80;
	ld	a, #0x80
	ldh	(_NR52_REG + 0), a
;home_defender.c:365: NR50_REG = 0x77;
	ld	a, #0x77
	ldh	(_NR50_REG + 0), a
;home_defender.c:366: NR51_REG = 0xFF;
	ld	a, #0xff
	ldh	(_NR51_REG + 0), a
;home_defender.c:368: set_bkg_data(0, 172, start_data);
	ld	de, #_start_data
	push	de
	ld	hl, #0xac00
	push	hl
	call	_set_bkg_data
	add	sp, #4
;home_defender.c:369: set_bkg_tiles(0, 0, 20, 18, start_map);
	ld	de, #_start_map
	push	de
	ld	hl, #0x1214
	push	hl
	xor	a, a
	rrca
	push	af
	call	_set_bkg_tiles
	add	sp, #6
;home_defender.c:370: DISPLAY_ON;
	ldh	a, (_LCDC_REG + 0)
	or	a, #0x80
	ldh	(_LCDC_REG + 0), a
;home_defender.c:371: numplays = 0;
	ld	hl, #_numplays
	ld	(hl), #0x00
;home_defender.c:373: while(1){
00102$:
;home_defender.c:375: startScreen();
	call	_startScreen
;home_defender.c:378: seed = DIV_REG;
	ldh	a, (_DIV_REG + 0)
	ld	c, a
	ld	b, #0x00
;home_defender.c:379: seed |= (uint16_t)DIV_REG << 8;
	ldh	a, (_DIV_REG + 0)
	ld	e, a
	xor	a, a
	or	a, c
	ld	c, a
	ld	a, e
	or	a, b
	ld	b, a
;home_defender.c:380: initarand(seed);
	push	bc
	call	_initarand
	pop	hl
;home_defender.c:382: menuSelection();
	call	_menuSelection
;home_defender.c:384: fadeTransition(172, start_data, start_map);
	ld	de, #_start_map
	push	de
	ld	de, #_start_data
	push	de
	ld	a, #0xac
	push	af
	inc	sp
	call	_fadeTransition
	add	sp, #5
;home_defender.c:386: }
	jr	00102$
	.area _CODE
	.area _INITIALIZER
	.area _CABS (ABS)
